(dp1
S'C02814'
p2
(dp3
S'Reaction'
p4
(dp5
S'R04061'
p6
(dp7
S'CO'
p8
(lp9
S'C02814'
p10
aS'C00007'
p11
aS'C03676'
p12
asS'KO'
p13
(lp14
S'K04098'
p15
assS'R01630'
p16
(dp17
g8
(lp18
S'C00230'
p19
aS'C00007'
p20
aS'C00005'
p21
aS'C00080'
p22
aS'C02814'
p23
aS'C00011'
p24
aS'C00006'
p25
aS'C00001'
p26
asg13
(lp27
ssS'R06851'
p28
(dp29
g8
(lp30
S'C00530'
p31
aS'C00005'
p32
aS'C00080'
p33
aS'C00007'
p34
aS'C02814'
p35
aS'C00006'
p36
aS'C00001'
p37
asg13
(lp38
S'K00492'
p39
assS'R09287'
p40
(dp41
g8
(lp42
S'C14604'
p43
aS'C00001'
p44
aS'C02814'
p45
aS'C00014'
p46
asg13
(lp47
ssS'R06853'
p48
(dp49
g8
(lp50
S'C02814'
p51
aS'C07103'
p52
asg13
(lp53
ssS'R03891'
p54
(dp55
g8
(lp56
S'C02814'
p57
aS'C00007'
p58
aS'C02222'
p59
asg13
(lp60
S'K04098'
p61
assS'R09285'
p62
(dp63
g8
(lp64
S'C18351'
p65
aS'C00001'
p66
aS'C02814'
p67
aS'C00014'
p68
asg13
(lp69
ssS'R01629'
p70
(dp71
g8
(lp72
S'C00230'
p73
aS'C00007'
p74
aS'C00004'
p75
aS'C00080'
p76
aS'C02814'
p77
aS'C00011'
p78
aS'C00003'
p79
aS'C00001'
p80
asg13
(lp81
ssS'R05265'
p82
(dp83
g8
(lp84
S'C02235'
p85
aS'C00007'
p86
aS'C00080'
p87
aS'C02814'
p88
aS'C00088'
p89
aS'C00001'
p90
asg13
(lp91
S'K00517'
p92
assS'R05249'
p93
(dp94
g8
(lp95
S'C01751'
p96
aS'C00007'
p97
aS'C00005'
p98
aS'C00080'
p99
aS'C02814'
p100
aS'C00006'
p101
aS'C00001'
p102
asg13
(lp103
S'K03380'
p104
assS'R05399'
p105
(dp106
g8
(lp107
S'C07103'
p108
aS'C00004'
p109
aS'C00080'
p110
aS'C02814'
p111
aS'C00003'
p112
asg13
(lp113
sssS'Related KO'
p114
(lp115
g15
ag92
ag39
ag104
asS'Modules'
p116
(lp117
sS'Name'
p118
g2
sS'Related CO'
p119
(lp120
g24
ag65
ag46
ag22
ag11
ag25
ag10
ag31
ag79
ag96
ag26
ag89
ag43
ag52
ag75
ag12
ag19
ag85
ag21
ag59
ass.