(dp1
S'C18316'
p2
(dp3
S'Reaction'
p4
(dp5
S'R09234'
p6
(dp7
S'CO'
p8
(lp9
S'C18315'
p10
aS'C00005'
p11
aS'C00007'
p12
aS'C00080'
p13
aS'C18316'
p14
aS'C00006'
p15
aS'C00088'
p16
aS'C00001'
p17
asS'KO'
p18
(lp19
ssS'R09236'
p20
(dp21
g8
(lp22
S'C18316'
p23
aS'C00004'
p24
aS'C00080'
p25
aS'C18317'
p26
aS'C00003'
p27
asg18
(lp28
sssS'Related KO'
p29
(lp30
sS'Modules'
p31
(lp32
sS'Name'
p33
g2
sS'Related CO'
p34
(lp35
g13
ag12
ag15
ag11
ag24
ag27
ag17
ag16
ag14
ag26
ag10
assS'C18218'
p36
(dp37
g4
(dp38
S'R09106'
p39
(dp40
g8
(lp41
S'C00406'
p42
aS'C18218'
p43
aS'C00010'
p44
aS'C18217'
p45
asg18
(lp46
S'K15400'
p47
assS'R09451'
p48
(dp49
g8
(lp50
S'C00249'
p51
aS'C00005'
p52
aS'C00007'
p53
aS'C00080'
p54
aS'C18218'
p55
aS'C00006'
p56
aS'C00001'
p57
asg18
(lp58
S'K15398'
p59
assS'R09460'
p60
(dp61
g8
(lp62
S'C18218'
p63
aS'C00005'
p64
aS'C00007'
p65
aS'C00080'
p66
aS'C08285'
p67
aS'C00006'
p68
aS'C00001'
p69
asg18
(lp70
S'K15399'
p71
assS'R09448'
p72
(dp73
g8
(lp74
S'C18218'
p75
aS'C19614'
p76
asg18
(lp77
sssg29
(lp78
g71
ag59
ag47
asg31
(lp79
sg33
g36
sg34
(lp80
g44
ag76
ag54
ag51
ag56
ag52
ag42
ag57
ag53
ag45
ag67
ag43
ass.