(dp1
S'C01909'
p2
(dp3
S'Reaction'
p4
(dp5
S'R01078'
p6
(dp7
S'CO'
p8
(lp9
S'C01909'
p10
aS'C17023'
p11
aS'C00019'
p12
aS'C05359'
p13
aS'C00080'
p14
aS'C00120'
p15
aS'C00073'
p16
aS'C05198'
p17
asS'KO'
p18
(lp19
S'K01012'
p20
assS'R03182'
p21
(dp22
g8
(lp23
S'C00002'
p24
aS'C01037'
p25
aS'C00011'
p26
aS'C00008'
p27
aS'C00009'
p28
aS'C01909'
p29
asg18
(lp30
S'K01935'
p31
asssS'Related KO'
p32
(lp33
g31
ag20
asS'Modules'
p34
(lp35
S'M00123'
p36
aS'M00573'
p37
aS'M00577'
p38
asS'Name'
p39
g2
sS'Related CO'
p40
(lp41
g10
ag15
ag28
ag14
ag12
ag11
ag27
ag24
ag26
ag13
ag17
ag16
ag25
assS'C10865'
p42
(dp43
g4
(dp44
S'R08425'
p45
(dp46
g8
(lp47
S'C06184'
p48
aS'C10865'
p49
asg18
(lp50
sssg32
(lp51
sg34
(lp52
sg39
g42
sg40
(lp53
g49
ag48
assS'C09046'
p54
(dp55
g4
(dp56
sg32
(lp57
sg34
(lp58
sg39
g54
sg40
(lp59
ssS'C16296'
p60
(dp61
g4
(dp62
S'R07906'
p63
(dp64
g8
(lp65
S'C16295'
p66
aS'C16296'
p67
asg18
(lp68
ssS'R07907'
p69
(dp70
g8
(lp71
S'C16294'
p72
aS'C16296'
p73
asg18
(lp74
sssg32
(lp75
sg34
(lp76
sg39
g60
sg40
(lp77
g66
ag72
ag67
assS'C11917'
p78
(dp79
g4
(dp80
sg32
(lp81
sg34
(lp82
sg39
g78
sg40
(lp83
ssS'C10861'
p84
(dp85
g4
(dp86
sg32
(lp87
sg34
(lp88
sg39
g84
sg40
(lp89
ssS'C10869'
p90
(dp91
g4
(dp92
sg32
(lp93
sg34
(lp94
sg39
g90
sg40
(lp95
ssS'C08947'
p96
(dp97
g4
(dp98
sg32
(lp99
sg34
(lp100
sg39
g96
sg40
(lp101
ssS'C10673'
p102
(dp103
g4
(dp104
sg32
(lp105
sg34
(lp106
sg39
g102
sg40
(lp107
ssS'C09995'
p108
(dp109
g4
(dp110
sg32
(lp111
sg34
(lp112
sg39
g108
sg40
(lp113
ssS'C17790'
p114
(dp115
g4
(dp116
sg32
(lp117
sg34
(lp118
sg39
g114
sg40
(lp119
ssS'C09674'
p120
(dp121
g4
(dp122
sg32
(lp123
sg34
(lp124
sg39
g120
sg40
(lp125
ssS'C06856'
p126
(dp127
g4
(dp128
sg32
(lp129
sg34
(lp130
sg39
g126
sg40
(lp131
ssS'C08968'
p132
(dp133
g4
(dp134
sg32
(lp135
sg34
(lp136
sg39
g132
sg40
(lp137
ssS'C03725'
p138
(dp139
g4
(dp140
S'R04588'
p141
(dp142
g8
(lp143
S'C03725'
p144
aS'C04829'
p145
aS'C01134'
p146
aS'C04747'
p147
asg18
(lp148
sssg32
(lp149
sg34
(lp150
sg39
g138
sg40
(lp151
g145
ag146
ag144
ag147
assS'C18218'
p152
(dp153
g4
(dp154
S'R09106'
p155
(dp156
g8
(lp157
S'C00406'
p158
aS'C18218'
p159
aS'C00010'
p160
aS'C18217'
p161
asg18
(lp162
S'K15400'
p163
assS'R09451'
p164
(dp165
g8
(lp166
S'C00249'
p167
aS'C00005'
p168
aS'C00007'
p169
aS'C00080'
p170
aS'C18218'
p171
aS'C00006'
p172
aS'C00001'
p173
asg18
(lp174
S'K15398'
p175
assS'R09460'
p176
(dp177
g8
(lp178
S'C18218'
p179
aS'C00005'
p180
aS'C00007'
p181
aS'C00080'
p182
aS'C08285'
p183
aS'C00006'
p184
aS'C00001'
p185
asg18
(lp186
S'K15399'
p187
assS'R09448'
p188
(dp189
g8
(lp190
S'C18218'
p191
aS'C19614'
p192
asg18
(lp193
sssg32
(lp194
g187
ag175
ag163
asg34
(lp195
sg39
g152
sg40
(lp196
g160
ag192
ag170
ag167
ag172
ag168
ag158
ag173
ag169
ag161
ag183
ag159
assS'C10103'
p197
(dp198
g4
(dp199
sg32
(lp200
sg34
(lp201
sg39
g197
sg40
(lp202
ssS'C11606'
p203
(dp204
g4
(dp205
sg32
(lp206
sg34
(lp207
sg39
g203
sg40
(lp208
ssS'C07866'
p209
(dp210
g4
(dp211
sg32
(lp212
sg34
(lp213
sg39
g209
sg40
(lp214
ssS'C16771'
p215
(dp216
g4
(dp217
sg32
(lp218
sg34
(lp219
sg39
g215
sg40
(lp220
ssS'C09772'
p221
(dp222
g4
(dp223
sg32
(lp224
sg34
(lp225
sg39
g221
sg40
(lp226
ssS'C18043'
p227
(dp228
g4
(dp229
S'R08941'
p230
(dp231
g8
(lp232
S'C00187'
p233
aS'C00059'
p234
aS'C18043'
p235
aS'C00001'
p236
asg18
(lp237
S'K01131'
p238
assS'R08977'
p239
(dp240
g8
(lp241
S'C00187'
p242
aS'C00053'
p243
aS'C18043'
p244
aS'C00054'
p245
asg18
(lp246
S'K01015'
p247
asssg32
(lp248
g247
ag238
asg34
(lp249
sg39
g227
sg40
(lp250
g235
ag236
ag245
ag243
ag233
ag234
assS'C16322'
p251
(dp252
g4
(dp253
S'R07868'
p254
(dp255
g8
(lp256
S'C16321'
p257
aS'C16322'
p258
aS'C16323'
p259
asg18
(lp260
S'K10528'
p261
asssg32
(lp262
g261
asg34
(lp263
sg39
g251
sg40
(lp264
g257
ag259
ag258
assS'C12889'
p265
(dp266
g4
(dp267
sg32
(lp268
sg34
(lp269
sg39
g265
sg40
(lp270
ssS'C07544'
p271
(dp272
g4
(dp273
sg32
(lp274
sg34
(lp275
sg39
g271
sg40
(lp276
ssS'C15117'
p277
(dp278
g4
(dp279
sg32
(lp280
sg34
(lp281
sg39
g277
sg40
(lp282
ssS'C10473'
p283
(dp284
g4
(dp285
sg32
(lp286
sg34
(lp287
sg39
g283
sg40
(lp288
ssS'C04873'
p289
(dp290
g4
(dp291
sg32
(lp292
sg34
(lp293
sg39
g289
sg40
(lp294
ssS'C09052'
p295
(dp296
g4
(dp297
sg32
(lp298
sg34
(lp299
sg39
g295
sg40
(lp300
ssS'C09201'
p301
(dp302
g4
(dp303
sg32
(lp304
sg34
(lp305
sg39
g301
sg40
(lp306
ssS'C15180'
p307
(dp308
g4
(dp309
sg32
(lp310
sg34
(lp311
sg39
g307
sg40
(lp312
ssS'C09981'
p313
(dp314
g4
(dp315
sg32
(lp316
sg34
(lp317
sg39
g313
sg40
(lp318
ssS'C05795'
p319
(dp320
g4
(dp321
S'R00070'
p322
(dp323
g8
(lp324
S'C05791'
p325
aS'C00007'
p326
aS'C05795'
p327
aS'C00001'
p328
asg18
(lp329
sssg32
(lp330
sg34
(lp331
sg39
g319
sg40
(lp332
g326
ag327
ag325
ag328
assS'C05790'
p333
(dp334
g4
(dp335
S'R06257'
p336
(dp337
g8
(lp338
S'C05790'
p339
aS'C00080'
p340
aS'C05789'
p341
asg18
(lp342
ssS'R06256'
p343
(dp344
g8
(lp345
S'C05791'
p346
aS'C00080'
p347
aS'C05790'
p348
asg18
(lp349
ssS'R06254'
p350
(dp351
g8
(lp352
S'C05790'
p353
aS'C00007'
p354
aS'C05794'
p355
aS'C00001'
p356
asg18
(lp357
sssg32
(lp358
sg34
(lp359
sg39
g333
sg40
(lp360
g341
ag340
ag354
ag339
ag346
ag356
ag355
assS'C00147'
p361
(dp362
g4
(dp363
S'R01402'
p364
(dp365
g8
(lp366
S'C00170'
p367
aS'C00009'
p368
aS'C00147'
p369
aS'C04188'
p370
asg18
(lp371
S'K00772'
p372
assS'R01401'
p373
(dp374
g8
(lp375
S'C00170'
p376
aS'C00001'
p377
aS'C00147'
p378
aS'C03089'
p379
asg18
(lp380
S'K01243'
p381
aS'K01244'
p382
aS'K18284'
p383
assS'R00182'
p384
(dp385
g8
(lp386
S'C00020'
p387
aS'C00001'
p388
aS'C00147'
p389
aS'C00117'
p390
asg18
(lp391
S'K01241'
p392
assS'R09675'
p393
(dp394
g8
(lp395
S'C00002'
p396
aS'C00882'
p397
aS'C19771'
p398
aS'C00147'
p399
asg18
(lp400
S'K05966'
p401
aS'K13927'
p402
aS'K13930'
p403
assS'R00194'
p404
(dp405
g8
(lp406
S'C00021'
p407
aS'C00001'
p408
aS'C03539'
p409
aS'C00147'
p410
asg18
(lp411
S'K01243'
p412
aS'K18284'
p413
assS'R05708'
p414
(dp415
g8
(lp416
S'C04083'
p417
aS'C00001'
p418
aS'C00028'
p419
aS'C00147'
p420
aS'C07330'
p421
aS'C00030'
p422
asg18
(lp423
S'K00279'
p424
assS'R00190'
p425
(dp426
g8
(lp427
S'C00020'
p428
aS'C00013'
p429
aS'C00147'
p430
aS'C00119'
p431
asg18
(lp432
S'K00759'
p433
aS'K00760'
p434
assS'R02557'
p435
(dp436
g8
(lp437
S'C00559'
p438
aS'C00009'
p439
aS'C00147'
p440
aS'C00672'
p441
asg18
(lp442
S'K03783'
p443
aS'K03784'
p444
assS'R01561'
p445
(dp446
g8
(lp447
S'C00212'
p448
aS'C00009'
p449
aS'C00147'
p450
aS'C00620'
p451
asg18
(lp452
S'K03783'
p453
aS'K03784'
p454
assS'R10836'
p455
(dp456
g8
(lp457
S'C00020'
p458
aS'C00009'
p459
aS'C00147'
p460
aS'C01151'
p461
asg18
(lp462
S'K18931'
p463
assS'R10185'
p464
(dp465
g8
(lp466
S'C00002'
p467
aS'C20396'
p468
aS'C20422'
p469
aS'C00147'
p470
asg18
(lp471
S'K05780'
p472
aS'K06164'
p473
aS'K06165'
p474
aS'K06166'
p475
assS'R10668'
p476
(dp477
g8
(lp478
S'C20773'
p479
aS'C00001'
p480
aS'C17010'
p481
aS'C00147'
p482
asg18
(lp483
S'K18284'
p484
assS'R01245'
p485
(dp486
g8
(lp487
S'C00212'
p488
aS'C00001'
p489
aS'C00147'
p490
aS'C00121'
p491
asg18
(lp492
S'K01239'
p493
aS'K10213'
p494
assS'R01244'
p495
(dp496
g8
(lp497
S'C00147'
p498
aS'C00001'
p499
aS'C00262'
p500
aS'C00014'
p501
asg18
(lp502
S'K01486'
p503
asssg32
(lp504
g383
ag494
ag443
ag444
ag472
ag463
ag382
ag474
ag381
ag392
ag433
ag372
ag475
ag401
ag473
ag402
ag493
ag424
ag503
ag434
ag403
asg34
(lp505
sg39
g361
sg40
(lp506
g491
ag407
ag387
ag368
ag468
ag419
ag377
ag379
ag451
ag421
ag398
ag367
ag438
ag448
ag397
ag390
ag429
ag501
ag422
ag417
ag370
ag431
ag369
ag396
ag481
ag500
ag461
ag469
ag441
ag409
ag479
assS'C17676'
p507
(dp508
g4
(dp509
sg32
(lp510
sg34
(lp511
sg39
g507
sg40
(lp512
ssS'C15451'
p513
(dp514
g4
(dp515
sg32
(lp516
sg34
(lp517
sg39
g513
sg40
(lp518
ssS'C08976'
p519
(dp520
g4
(dp521
sg32
(lp522
sg34
(lp523
sg39
g519
sg40
(lp524
ssS'C09944'
p525
(dp526
g4
(dp527
sg32
(lp528
sg34
(lp529
sg39
g525
sg40
(lp530
ssS'C04303'
p531
(dp532
g4
(dp533
S'R04113'
p534
(dp535
g8
(lp536
S'C04303'
p537
aS'C00001'
p538
aS'C03001'
p539
aS'C02126'
p540
asg18
(lp541
sssg32
(lp542
sg34
(lp543
sg39
g531
sg40
(lp544
g537
ag540
ag538
ag539
assS'C03929'
p545
(dp546
g4
(dp547
sg32
(lp548
sg34
(lp549
sg39
g545
sg40
(lp550
ssS'C06843'
p551
(dp552
g4
(dp553
sg32
(lp554
sg34
(lp555
sg39
g551
sg40
(lp556
ssS'C11969'
p557
(dp558
g4
(dp559
S'R06465'
p560
(dp561
g8
(lp562
S'C11969'
p563
aS'C00005'
p564
aS'C00007'
p565
aS'C11970'
p566
aS'C00006'
p567
aS'C00001'
p568
asg18
(lp569
S'K14372'
p570
assS'R06480'
p571
(dp572
g8
(lp573
S'C01033'
p574
aS'C02557'
p575
aS'C00083'
p576
aS'C00005'
p577
aS'C00080'
p578
aS'C11969'
p579
aS'C00011'
p580
aS'C00010'
p581
aS'C00001'
p582
aS'C00006'
p583
asg18
(lp584
S'K14371'
p585
asssg32
(lp586
g585
ag570
asg34
(lp587
sg39
g557
sg40
(lp588
g581
ag580
ag576
ag578
ag565
ag567
ag564
ag568
ag566
ag575
ag574
ag563
assS'C07320'
p589
(dp590
g4
(dp591
sg32
(lp592
sg34
(lp593
sg39
g589
sg40
(lp594
ssS'C04020'
p595
(dp596
g4
(dp597
S'R00452'
p598
(dp599
g8
(lp600
S'C04020'
p601
aS'C00006'
p602
aS'C00001'
p603
aS'C00047'
p604
aS'C00022'
p605
aS'C00005'
p606
aS'C00080'
p607
asg18
(lp608
sssg32
(lp609
sg34
(lp610
sg39
g595
sg40
(lp611
g605
ag601
ag606
ag607
ag603
ag604
ag602
assS'C10178'
p612
(dp613
g4
(dp614
sg32
(lp615
sg34
(lp616
sg39
g612
sg40
(lp617
ssS'C07874'
p618
(dp619
g4
(dp620
sg32
(lp621
sg34
(lp622
sg39
g618
sg40
(lp623
ssS'C12140'
p624
(dp625
g4
(dp626
S'R06550'
p627
(dp628
g8
(lp629
S'C12138'
p630
aS'C12140'
p631
asg18
(lp632
sssg32
(lp633
sg34
(lp634
sg39
g624
sg40
(lp635
g630
ag631
assS'C16928'
p636
(dp637
g4
(dp638
sg32
(lp639
sg34
(lp640
sg39
g636
sg40
(lp641
ssS'C12262'
p642
(dp643
g4
(dp644
sg32
(lp645
sg34
(lp646
sg39
g642
sg40
(lp647
ssS'C11998'
p648
(dp649
g4
(dp650
S'R06464'
p651
(dp652
g8
(lp653
S'C11998'
p654
aS'C00005'
p655
aS'C00080'
p656
aS'C00007'
p657
aS'C11999'
p658
aS'C00006'
p659
aS'C00001'
p660
asg18
(lp661
S'K16006'
p662
assS'R10627'
p663
(dp664
g8
(lp665
S'C11998'
p666
aS'C00005'
p667
aS'C00080'
p668
aS'C00007'
p669
aS'C20740'
p670
aS'C00006'
p671
aS'C00001'
p672
asg18
(lp673
S'K16006'
p674
assS'R10626'
p675
(dp676
g8
(lp677
S'C11998'
p678
aS'C00005'
p679
aS'C00080'
p680
aS'C00007'
p681
aS'C20739'
p682
aS'C00006'
p683
aS'C00001'
p684
asg18
(lp685
S'K16006'
p686
assS'R06461'
p687
(dp688
g8
(lp689
S'C11997'
p690
aS'C11911'
p691
aS'C11998'
p692
aS'C00363'
p693
asg18
(lp694
S'K16004'
p695
aS'K16005'
p696
asssg32
(lp697
g695
ag696
ag662
asg34
(lp698
sg39
g648
sg40
(lp699
g691
ag693
ag656
ag657
ag659
ag655
ag682
ag660
ag658
ag654
ag670
ag690
assS'C02236'
p700
(dp701
g4
(dp702
S'R01636'
p703
(dp704
g8
(lp705
S'C02236'
p706
aS'C00007'
p707
aS'C00004'
p708
aS'C00080'
p709
aS'C00230'
p710
aS'C00094'
p711
aS'C00003'
p712
asg18
(lp713
ssS'R05272'
p714
(dp715
g8
(lp716
S'C06679'
p717
aS'C00003'
p718
aS'C00001'
p719
aS'C02236'
p720
aS'C00004'
p721
aS'C00080'
p722
asg18
(lp723
sssg32
(lp724
sg34
(lp725
sg39
g700
sg40
(lp726
g717
ag709
ag707
ag708
ag712
ag719
ag710
ag706
ag711
assS'C04867'
p727
(dp728
g4
(dp729
S'R04608'
p730
(dp731
g8
(lp732
S'C04867'
p733
aS'C00001'
p734
aS'C04834'
p735
aS'C00132'
p736
asg18
(lp737
sssg32
(lp738
sg34
(lp739
sg39
g727
sg40
(lp740
g733
ag735
ag734
ag736
assS'C15356'
p741
(dp742
g4
(dp743
sg32
(lp744
sg34
(lp745
sg39
g741
sg40
(lp746
ssS'C01337'
p747
(dp748
g4
(dp749
sg32
(lp750
sg34
(lp751
sg39
g747
sg40
(lp752
ssS'C08689'
p753
(dp754
g4
(dp755
sg32
(lp756
sg34
(lp757
sg39
g753
sg40
(lp758
ssS'C01804'
p759
(dp760
g4
(dp761
S'R03726'
p762
(dp763
g8
(lp764
S'C00019'
p765
aS'C04083'
p766
aS'C00170'
p767
aS'C01804'
p768
asg18
(lp769
sssg32
(lp770
sg34
(lp771
sg39
g759
sg40
(lp772
g766
ag765
ag767
ag768
assS'C08449'
p773
(dp774
g4
(dp775
sg32
(lp776
sg34
(lp777
sg39
g773
sg40
(lp778
ssS'C10099'
p779
(dp780
g4
(dp781
sg32
(lp782
sg34
(lp783
sg39
g779
sg40
(lp784
ssS'C03995'
p785
(dp786
g4
(dp787
S'R04367'
p788
(dp789
g8
(lp790
S'C03995'
p791
aS'C02126'
p792
aS'C04815'
p793
asg18
(lp794
sssg32
(lp795
sg34
(lp796
sg39
g785
sg40
(lp797
g793
ag792
ag791
assS'C11974'
p798
(dp799
g4
(dp800
S'R06486'
p801
(dp802
g8
(lp803
S'C11972'
p804
aS'C11921'
p805
aS'C11974'
p806
aS'C00363'
p807
asg18
(lp808
S'K14375'
p809
assS'R06487'
p810
(dp811
g8
(lp812
S'C11974'
p813
aS'C11921'
p814
aS'C11976'
p815
aS'C00363'
p816
asg18
(lp817
S'K14375'
p818
asssg32
(lp819
g809
asg34
(lp820
sg39
g798
sg40
(lp821
g806
ag805
ag815
ag807
ag804
assS'C14795'
p822
(dp823
g4
(dp824
sg32
(lp825
sg34
(lp826
sg39
g822
sg40
(lp827
ssS'C17713'
p828
(dp829
g4
(dp830
sg32
(lp831
sg34
(lp832
sg39
g828
sg40
(lp833
ssS'C09103'
p834
(dp835
g4
(dp836
sg32
(lp837
sg34
(lp838
sg39
g834
sg40
(lp839
ssS'C12414'
p840
(dp841
g4
(dp842
S'R06667'
p843
(dp844
g8
(lp845
S'C12408'
p846
aS'C12447'
p847
aS'C12414'
p848
aS'C00363'
p849
asg18
(lp850
S'K15938'
p851
assS'R06668'
p852
(dp853
g8
(lp854
S'C12414'
p855
aS'C11923'
p856
aS'C12413'
p857
aS'C00363'
p858
asg18
(lp859
S'K15939'
p860
asssg32
(lp861
g860
ag851
asg34
(lp862
sg39
g840
sg40
(lp863
g846
ag849
ag857
ag848
ag856
ag847
assS'C16260'
p864
(dp865
g4
(dp866
S'R07798'
p867
(dp868
g8
(lp869
S'C00053'
p870
aS'C16260'
p871
aS'C00054'
p872
aS'C16261'
p873
asg18
(lp874
sssg32
(lp875
sg34
(lp876
sg39
g864
sg40
(lp877
g872
ag871
ag873
ag870
assS'C16261'
p878
(dp879
g4
(dp880
S'R07798'
p881
(dp882
g8
(lp883
S'C00053'
p884
aS'C16260'
p885
aS'C00054'
p886
aS'C16261'
p887
asg18
(lp888
sssg32
(lp889
sg34
(lp890
sg39
g878
sg40
(lp891
g886
ag885
ag887
ag884
assS'C09106'
p892
(dp893
g4
(dp894
sg32
(lp895
sg34
(lp896
sg39
g892
sg40
(lp897
ssS'C15687'
p898
(dp899
g4
(dp900
sg32
(lp901
sg34
(lp902
sg39
g898
sg40
(lp903
ssS'C11990'
p904
(dp905
g4
(dp906
S'R06455'
p907
(dp908
g8
(lp909
S'C11990'
p910
aS'C11920'
p911
aS'C11991'
p912
aS'C00363'
p913
asg18
(lp914
S'K16009'
p915
assS'R06454'
p916
(dp917
g8
(lp918
S'C11989'
p919
aS'C00005'
p920
aS'C00080'
p921
aS'C00007'
p922
aS'C11990'
p923
aS'C00006'
p924
aS'C00001'
p925
asg18
(lp926
S'K16008'
p927
asssg32
(lp928
g927
ag915
asg34
(lp929
sg39
g904
sg40
(lp930
g913
ag921
ag922
ag924
ag920
ag925
ag919
ag911
ag910
ag912
assS'C14240'
p931
(dp932
g4
(dp933
sg32
(lp934
sg34
(lp935
sg39
g931
sg40
(lp936
ssS'C15682'
p937
(dp938
g4
(dp939
S'R10874'
p940
(dp941
g8
(lp942
S'C11912'
p943
aS'C15683'
p944
aS'C15682'
p945
aS'C00363'
p946
asg18
(lp947
ssS'R09822'
p948
(dp949
g8
(lp950
S'C15682'
p951
aS'C00019'
p952
aS'C15681'
p953
aS'C00021'
p954
asg18
(lp955
sssg32
(lp956
sg34
(lp957
sg39
g937
sg40
(lp958
g943
ag944
ag945
ag953
ag952
ag954
ag946
assS'C10167'
p959
(dp960
g4
(dp961
sg32
(lp962
sg34
(lp963
sg39
g959
sg40
(lp964
ssS'C00255'
p965
(dp966
g4
(dp967
S'R09750'
p968
(dp969
g8
(lp970
S'C01007'
p971
aS'C00003'
p972
aS'C00255'
p973
aS'C00004'
p974
aS'C00080'
p975
asg18
(lp976
ssS'R01734'
p977
(dp978
g8
(lp979
S'C03114'
p980
aS'C00255'
p981
asg18
(lp982
ssS'R00066'
p983
(dp984
g8
(lp985
S'C04332'
p986
aS'C00255'
p987
aS'C04732'
p988
asg18
(lp989
S'K00793'
p990
assS'R01732'
p991
(dp992
g8
(lp993
S'C00255'
p994
aS'C00001'
p995
aS'C00474'
p996
aS'C01727'
p997
asg18
(lp998
ssS'R08574'
p999
(dp1000
g8
(lp1001
S'C00063'
p1002
aS'C00255'
p1003
aS'C00112'
p1004
aS'C00061'
p1005
asg18
(lp1006
S'K07732'
p1007
assS'R00550'
p1008
(dp1009
g8
(lp1010
S'C00103'
p1011
aS'C00255'
p1012
aS'C00031'
p1013
aS'C00061'
p1014
asg18
(lp1015
ssS'R05707'
p1016
(dp1017
g8
(lp1018
S'C01007'
p1019
aS'C00006'
p1020
aS'C00255'
p1021
aS'C00005'
p1022
aS'C00080'
p1023
asg18
(lp1024
S'K05901'
p1025
assS'R00549'
p1026
(dp1027
g8
(lp1028
S'C00002'
p1029
aS'C00255'
p1030
aS'C00008'
p1031
aS'C00061'
p1032
asg18
(lp1033
S'K00861'
p1034
aS'K11753'
p1035
assS'R00548'
p1036
(dp1037
g8
(lp1038
S'C00061'
p1039
aS'C00001'
p1040
aS'C00255'
p1041
aS'C00009'
p1042
asg18
(lp1043
S'K01078'
p1044
aS'K01093'
p1045
aS'K03788'
p1046
aS'K09474'
p1047
aS'K14379'
p1048
aS'K14394'
p1049
aS'K14395'
p1050
aS'K14410'
p1051
asssg32
(lp1052
g1044
ag1025
ag1048
ag1046
ag1035
ag1007
ag1047
ag1034
ag1045
ag990
ag1051
ag1049
ag1050
asg34
(lp1053
S'M00125'
p1054
asg39
g965
sg40
(lp1055
g1004
ag974
ag1031
ag1011
ag1013
ag975
ag1005
ag1020
ag1002
ag973
ag972
ag1029
ag995
ag971
ag988
ag1022
ag996
ag980
ag997
ag1042
ag986
assS'C00397'
p1056
(dp1057
g4
(dp1058
S'R10543'
p1059
(dp1060
g8
(lp1061
S'C20684'
p1062
aS'C00397'
p1063
aS'C00020'
p1064
aS'C18001'
p1065
asg18
(lp1066
ssS'R10767'
p1067
(dp1068
g8
(lp1069
S'C00397'
p1070
aS'C00169'
p1071
aS'C00002'
p1072
aS'C00001'
p1073
aS'C18001'
p1074
aS'C00020'
p1075
aS'C00013'
p1076
aS'C00009'
p1077
asg18
(lp1078
sssg32
(lp1079
sg34
(lp1080
sg39
g1056
sg40
(lp1081
g1076
ag1064
ag1077
ag1065
ag1062
ag1063
ag1072
ag1073
ag1071
assS'C07202'
p1082
(dp1083
g4
(dp1084
sg32
(lp1085
sg34
(lp1086
sg39
g1082
sg40
(lp1087
ssS'C15823'
p1088
(dp1089
g4
(dp1090
sg32
(lp1091
sg34
(lp1092
sg39
g1088
sg40
(lp1093
ssS'C07805'
p1094
(dp1095
g4
(dp1096
sg32
(lp1097
sg34
(lp1098
sg39
g1094
sg40
(lp1099
ssS'C10683'
p1100
(dp1101
g4
(dp1102
sg32
(lp1103
sg34
(lp1104
sg39
g1100
sg40
(lp1105
ssS'C15760'
p1106
(dp1107
g4
(dp1108
sg32
(lp1109
sg34
(lp1110
sg39
g1106
sg40
(lp1111
ssS'C11844'
p1112
(dp1113
g4
(dp1114
sg32
(lp1115
sg34
(lp1116
sg39
g1112
sg40
(lp1117
ssS'C16566'
p1118
(dp1119
g4
(dp1120
S'R08351'
p1121
(dp1122
g8
(lp1123
S'C16567'
p1124
aS'C00001'
p1125
aS'C00051'
p1126
aS'C16566'
p1127
asg18
(lp1128
S'K01833'
p1129
assS'R08354'
p1130
(dp1131
g8
(lp1132
S'C00002'
p1133
aS'C00051'
p1134
aS'C16565'
p1135
aS'C00008'
p1136
aS'C00009'
p1137
aS'C16566'
p1138
asg18
(lp1139
S'K01833'
p1140
assS'R08355'
p1141
(dp1142
g8
(lp1143
S'C00002'
p1144
aS'C00051'
p1145
aS'C16566'
p1146
aS'C00008'
p1147
aS'C00009'
p1148
aS'C16567'
p1149
asg18
(lp1150
S'K01833'
p1151
asssg32
(lp1152
g1129
asg34
(lp1153
sg39
g1118
sg40
(lp1154
g1124
ag1127
ag1135
ag1137
ag1136
ag1133
ag1125
ag1126
assS'C10007'
p1155
(dp1156
g4
(dp1157
sg32
(lp1158
sg34
(lp1159
sg39
g1155
sg40
(lp1160
ssS'C09198'
p1161
(dp1162
g4
(dp1163
sg32
(lp1164
sg34
(lp1165
sg39
g1161
sg40
(lp1166
ssS'C03113'
p1167
(dp1168
g4
(dp1169
S'R01533'
p1170
(dp1171
g8
(lp1172
S'C00202'
p1173
aS'C00001'
p1174
aS'C03113'
p1175
aS'C16487'
p1176
asg18
(lp1177
sssg32
(lp1178
sg34
(lp1179
sg39
g1167
sg40
(lp1180
g1175
ag1176
ag1174
ag1173
assS'C00881'
p1181
(dp1182
g4
(dp1183
S'R01666'
p1184
(dp1185
g8
(lp1186
S'C00002'
p1187
aS'C00881'
p1188
aS'C00008'
p1189
aS'C00239'
p1190
asg18
(lp1191
S'K00893'
p1192
aS'K15519'
p1193
assS'R01664'
p1194
(dp1195
g8
(lp1196
S'C00239'
p1197
aS'C00001'
p1198
aS'C00881'
p1199
aS'C00009'
p1200
asg18
(lp1201
S'K01081'
p1202
aS'K03787'
p1203
aS'K08693'
p1204
aS'K08722'
p1205
aS'K08723'
p1206
aS'K11751'
p1207
assS'R02321'
p1208
(dp1209
g8
(lp1210
S'C00201'
p1211
aS'C00881'
p1212
aS'C00454'
p1213
aS'C00239'
p1214
asg18
(lp1215
ssS'R02485'
p1216
(dp1217
g8
(lp1218
S'C00881'
p1219
aS'C00001'
p1220
aS'C00526'
p1221
aS'C00014'
p1222
asg18
(lp1223
S'K01489'
p1224
aS'K10989'
p1225
asssg32
(lp1226
g1204
ag1193
ag1205
ag1206
ag1203
ag1192
ag1207
ag1224
ag1202
ag1225
asg34
(lp1227
sg39
g1181
sg40
(lp1228
g1222
ag1200
ag1189
ag1213
ag1221
ag1187
ag1198
ag1190
ag1211
ag1188
assS'C16503'
p1229
(dp1230
g4
(dp1231
S'R08147'
p1232
(dp1233
g8
(lp1234
S'C16502'
p1235
aS'C16503'
p1236
asg18
(lp1237
S'K10718'
p1238
aS'K15824'
p1239
assS'R08148'
p1240
(dp1241
g8
(lp1242
S'C16503'
p1243
aS'C00007'
p1244
aS'C00005'
p1245
aS'C00080'
p1246
aS'C09694'
p1247
aS'C00006'
p1248
aS'C00001'
p1249
asg18
(lp1250
S'K14937'
p1251
asssg32
(lp1252
g1238
ag1251
ag1239
asg34
(lp1253
sg39
g1229
sg40
(lp1254
g1236
ag1235
ag1246
ag1244
ag1248
ag1245
ag1249
ag1247
assS'C09137'
p1255
(dp1256
g4
(dp1257
sg32
(lp1258
sg34
(lp1259
sg39
g1255
sg40
(lp1260
ssS'C13127'
p1261
(dp1262
g4
(dp1263
sg32
(lp1264
sg34
(lp1265
sg39
g1261
sg40
(lp1266
ssS'C09888'
p1267
(dp1268
g4
(dp1269
sg32
(lp1270
sg34
(lp1271
sg39
g1267
sg40
(lp1272
ssS'C16787'
p1273
(dp1274
g4
(dp1275
sg32
(lp1276
sg34
(lp1277
sg39
g1273
sg40
(lp1278
ssS'C11993'
p1279
(dp1280
g4
(dp1281
S'R06458'
p1282
(dp1283
g8
(lp1284
S'C02557'
p1285
aS'C00083'
p1286
aS'C00005'
p1287
aS'C00080'
p1288
aS'C11993'
p1289
aS'C00010'
p1290
aS'C00011'
p1291
aS'C00001'
p1292
aS'C00006'
p1293
asg18
(lp1294
S'K16000'
p1295
aS'K16001'
p1296
aS'K16002'
p1297
assS'R06460'
p1298
(dp1299
g8
(lp1300
S'C11993'
p1301
aS'C11911'
p1302
aS'C11994'
p1303
aS'C00363'
p1304
asg18
(lp1305
S'K16004'
p1306
aS'K16005'
p1307
asssg32
(lp1308
g1306
ag1307
ag1295
ag1296
ag1297
asg34
(lp1309
sg39
g1279
sg40
(lp1310
g1290
ag1291
ag1302
ag1286
ag1304
ag1288
ag1293
ag1287
ag1292
ag1289
ag1285
ag1303
assS'C12280'
p1311
(dp1312
g4
(dp1313
sg32
(lp1314
sg34
(lp1315
sg39
g1311
sg40
(lp1316
ssS'C16622'
p1317
(dp1318
g4
(dp1319
S'R08250'
p1320
(dp1321
g8
(lp1322
S'C00024'
p1323
aS'C07447'
p1324
aS'C00010'
p1325
aS'C16622'
p1326
asg18
(lp1327
S'K00622'
p1328
asssg32
(lp1329
g1328
asg34
(lp1330
sg39
g1317
sg40
(lp1331
g1325
ag1323
ag1324
ag1326
assS'C12646'
p1332
(dp1333
g4
(dp1334
S'R06819'
p1335
(dp1336
g8
(lp1337
S'C08620'
p1338
aS'C00029'
p1339
aS'C12646'
p1340
aS'C00015'
p1341
asg18
(lp1342
sssg32
(lp1343
sg34
(lp1344
sg39
g1332
sg40
(lp1345
g1340
ag1338
ag1339
ag1341
assS'C16186'
p1346
(dp1347
g4
(dp1348
S'R07671'
p1349
(dp1350
g8
(lp1351
S'C04261'
p1352
aS'C00072'
p1353
aS'C00615'
p1354
aS'C16186'
p1355
asg18
(lp1356
S'K02821'
p1357
aS'K02822'
p1358
aS'K03475'
p1359
assS'R07677'
p1360
(dp1361
g8
(lp1362
S'C16186'
p1363
aS'C00001'
p1364
aS'C14899'
p1365
asg18
(lp1366
S'K03476'
p1367
asssg32
(lp1368
g1367
ag1359
ag1358
ag1357
asg34
(lp1369
S'M00550'
p1370
asg39
g1346
sg40
(lp1371
g1352
ag1353
ag1364
ag1365
ag1355
ag1354
assS'C16422'
p1372
(dp1373
g4
(dp1374
S'R08022'
p1375
(dp1376
g8
(lp1377
S'C16422'
p1378
aS'C02199'
p1379
aS'C09806'
p1380
aS'C00015'
p1381
asg18
(lp1382
S'K13080'
p1383
assS'R08021'
p1384
(dp1385
g8
(lp1386
S'C00029'
p1387
aS'C01709'
p1388
aS'C00015'
p1389
aS'C16422'
p1390
asg18
(lp1391
sssg32
(lp1392
g1383
asg34
(lp1393
sg39
g1372
sg40
(lp1394
g1381
ag1387
ag1388
ag1379
ag1378
ag1380
assS'C13846'
p1395
(dp1396
g4
(dp1397
sg32
(lp1398
sg34
(lp1399
sg39
g1395
sg40
(lp1400
ssS'C16589'
p1401
(dp1402
g4
(dp1403
S'R08328'
p1404
(dp1405
g8
(lp1406
S'C16589'
p1407
aS'C16590'
p1408
aS'C00011'
p1409
asg18
(lp1410
ssS'R08215'
p1411
(dp1412
g8
(lp1413
S'C16600'
p1414
aS'C00003'
p1415
aS'C16589'
p1416
aS'C00011'
p1417
aS'C00004'
p1418
aS'C00080'
p1419
asg18
(lp1420
S'K10978'
p1421
asssg32
(lp1422
g1421
asg34
(lp1423
S'M00608'
p1424
asg39
g1401
sg40
(lp1425
g1407
ag1409
ag1419
ag1408
ag1418
ag1415
ag1414
assS'C13929'
p1426
(dp1427
g4
(dp1428
sg32
(lp1429
sg34
(lp1430
sg39
g1426
sg40
(lp1431
ssS'C07699'
p1432
(dp1433
g4
(dp1434
sg32
(lp1435
sg34
(lp1436
sg39
g1432
sg40
(lp1437
ssS'C00242'
p1438
(dp1439
g4
(dp1440
S'R02147'
p1441
(dp1442
g8
(lp1443
S'C00387'
p1444
aS'C00009'
p1445
aS'C00242'
p1446
aS'C00620'
p1447
asg18
(lp1448
S'K03783'
p1449
aS'K03784'
p1450
assS'R10209'
p1451
(dp1452
g8
(lp1453
S'C01977'
p1454
aS'C16675'
p1455
aS'C20446'
p1456
aS'C00242'
p1457
asg18
(lp1458
S'K00773'
p1459
aS'K15407'
p1460
assS'R01969'
p1461
(dp1462
g8
(lp1463
S'C00330'
p1464
aS'C00009'
p1465
aS'C00242'
p1466
aS'C00672'
p1467
asg18
(lp1468
S'K03783'
p1469
aS'K03784'
p1470
assS'R01676'
p1471
(dp1472
g8
(lp1473
S'C00242'
p1474
aS'C00001'
p1475
aS'C00385'
p1476
aS'C00014'
p1477
asg18
(lp1478
S'K01487'
p1479
assS'R01677'
p1480
(dp1481
g8
(lp1482
S'C00387'
p1483
aS'C00001'
p1484
aS'C00242'
p1485
aS'C00121'
p1486
asg18
(lp1487
S'K01239'
p1488
aS'K10213'
p1489
assS'R03789'
p1490
(dp1491
g8
(lp1492
S'C01977'
p1493
aS'C01449'
p1494
aS'C01978'
p1495
aS'C00242'
p1496
asg18
(lp1497
S'K00773'
p1498
aS'K15407'
p1499
assS'R01229'
p1500
(dp1501
g8
(lp1502
S'C00144'
p1503
aS'C00013'
p1504
aS'C00242'
p1505
aS'C00119'
p1506
asg18
(lp1507
S'K00759'
p1508
aS'K00760'
p1509
aS'K00769'
p1510
aS'K03816'
p1511
aS'K15780'
p1512
asssg32
(lp1513
g1489
ag1449
ag1510
ag1450
ag1512
ag1460
ag1511
ag1459
ag1508
ag1488
ag1479
ag1509
asg34
(lp1514
sg39
g1438
sg40
(lp1515
g1486
ag1447
ag1477
ag1445
ag1454
ag1495
ag1464
ag1455
ag1444
ag1506
ag1475
ag1456
ag1494
ag1467
ag1446
ag1503
ag1476
ag1504
assS'C03068'
p1516
(dp1517
g4
(dp1518
sg32
(lp1519
sg34
(lp1520
sg39
g1516
sg40
(lp1521
ssS'C10388'
p1522
(dp1523
g4
(dp1524
sg32
(lp1525
sg34
(lp1526
sg39
g1522
sg40
(lp1527
ssS'C06812'
p1528
(dp1529
g4
(dp1530
sg32
(lp1531
sg34
(lp1532
sg39
g1528
sg40
(lp1533
ssS'C14926'
p1534
(dp1535
g4
(dp1536
sg32
(lp1537
sg34
(lp1538
sg39
g1534
sg40
(lp1539
ssS'C00670'
p1540
(dp1541
g4
(dp1542
S'R02745'
p1543
(dp1544
g8
(lp1545
S'C04517'
p1546
aS'C00001'
p1547
aS'C00071'
p1548
aS'C00670'
p1549
asg18
(lp1550
S'K18575'
p1551
assS'R02744'
p1552
(dp1553
g8
(lp1554
S'C00670'
p1555
aS'C00060'
p1556
aS'C04233'
p1557
aS'C00001'
p1558
asg18
(lp1559
ssS'R02747'
p1560
(dp1561
g8
(lp1562
S'C04233'
p1563
aS'C00001'
p1564
aS'C00670'
p1565
aS'C00162'
p1566
asg18
(lp1567
S'K06130'
p1568
aS'K14621'
p1569
aS'K14676'
p1570
assS'R02746'
p1571
(dp1572
g8
(lp1573
S'C04230'
p1574
aS'C00001'
p1575
aS'C00670'
p1576
aS'C00162'
p1577
asg18
(lp1578
S'K06128'
p1579
aS'K06129'
p1580
aS'K14621'
p1581
aS'K14676'
p1582
assS'R01309'
p1583
(dp1584
g8
(lp1585
S'C00157'
p1586
aS'C00001'
p1587
aS'C00670'
p1588
aS'C00162'
p1589
asg18
(lp1590
ssS'R07291'
p1591
(dp1592
g8
(lp1593
S'C04230'
p1594
aS'C00001'
p1595
aS'C00670'
p1596
aS'C00060'
p1597
asg18
(lp1598
ssS'R01030'
p1599
(dp1600
g8
(lp1601
S'C00670'
p1602
aS'C00001'
p1603
aS'C00114'
p1604
aS'C00093'
p1605
asg18
(lp1606
S'K01126'
p1607
aS'K18695'
p1608
aS'K18696'
p1609
assS'R02591'
p1610
(dp1611
g8
(lp1612
S'C00670'
p1613
aS'C00001'
p1614
aS'C00116'
p1615
aS'C00588'
p1616
asg18
(lp1617
sssg32
(lp1618
g1551
ag1579
ag1580
ag1609
ag1608
ag1568
ag1569
ag1607
ag1570
asg34
(lp1619
sg39
g1540
sg40
(lp1620
g1604
ag1616
ag1615
ag1556
ag1546
ag1548
ag1574
ag1547
ag1557
ag1549
ag1586
ag1566
ag1605
assS'C05939'
p1621
(dp1622
g4
(dp1623
S'R02895'
p1624
(dp1625
g8
(lp1626
S'C00763'
p1627
aS'C00064'
p1628
aS'C05939'
p1629
asg18
(lp1630
sssg32
(lp1631
sg34
(lp1632
sg39
g1621
sg40
(lp1633
g1627
ag1628
ag1629
assS'C12366'
p1634
(dp1635
g4
(dp1636
S'R10960'
p1637
(dp1638
g8
(lp1639
S'C00083'
p1640
aS'C12366'
p1641
aS'C00010'
p1642
aS'C00011'
p1643
aS'C00001'
p1644
asg18
(lp1645
S'K15886'
p1646
assS'R06699'
p1647
(dp1648
g8
(lp1649
S'C12366'
p1650
aS'C12367'
p1651
aS'C00001'
p1652
asg18
(lp1653
S'K15968'
p1654
assS'R09355'
p1655
(dp1656
g8
(lp1657
S'C18337'
p1658
aS'C12366'
p1659
aS'C00229'
p1660
asg18
(lp1661
sssg32
(lp1662
g1654
ag1646
asg34
(lp1663
sg39
g1634
sg40
(lp1664
g1642
ag1643
ag1640
ag1644
ag1651
ag1641
ag1660
ag1658
assS'C02195'
p1665
(dp1666
g4
(dp1667
sg32
(lp1668
sg34
(lp1669
sg39
g1665
sg40
(lp1670
ssS'C08726'
p1671
(dp1672
g4
(dp1673
sg32
(lp1674
sg34
(lp1675
sg39
g1671
sg40
(lp1676
ssS'C07261'
p1677
(dp1678
g4
(dp1679
sg32
(lp1680
sg34
(lp1681
sg39
g1677
sg40
(lp1682
ssS'C10439'
p1683
(dp1684
g4
(dp1685
sg32
(lp1686
sg34
(lp1687
sg39
g1683
sg40
(lp1688
ssS'C07264'
p1689
(dp1690
g4
(dp1691
sg32
(lp1692
sg34
(lp1693
sg39
g1689
sg40
(lp1694
ssS'C15715'
p1695
(dp1696
g4
(dp1697
sg32
(lp1698
sg34
(lp1699
sg39
g1695
sg40
(lp1700
ssS'C15714'
p1701
(dp1702
g4
(dp1703
sg32
(lp1704
sg34
(lp1705
sg39
g1701
sg40
(lp1706
ssS'C00061'
p1707
(dp1708
g4
(dp1709
S'R09313'
p1710
(dp1711
g8
(lp1712
S'C18360'
p1713
aS'C01847'
p1714
aS'C00007'
p1715
aS'C18358'
p1716
aS'C00061'
p1717
aS'C00001'
p1718
asg18
(lp1719
S'K14630'
p1720
assS'R10203'
p1721
(dp1722
g8
(lp1723
S'C11142'
p1724
aS'C01847'
p1725
aS'C00007'
p1726
aS'C11145'
p1727
aS'C00067'
p1728
aS'C00061'
p1729
aS'C00001'
p1730
asg18
(lp1731
S'K17228'
p1732
assS'R07210'
p1733
(dp1734
g8
(lp1735
S'C15521'
p1736
aS'C01847'
p1737
aS'C00007'
p1738
aS'C00071'
p1739
aS'C00061'
p1740
aS'C00094'
p1741
aS'C00001'
p1742
asg18
(lp1743
S'K00299'
p1744
aS'K04091'
p1745
assS'R07664'
p1746
(dp1747
g8
(lp1748
S'C01984'
p1749
aS'C00061'
p1750
aS'C02137'
p1751
aS'C01847'
p1752
asg18
(lp1753
S'K15054'
p1754
assS'R10551'
p1755
(dp1756
g8
(lp1757
S'C00609'
p1758
aS'C01847'
p1759
aS'C00007'
p1760
aS'C00638'
p1761
aS'C00205'
p1762
aS'C00061'
p1763
aS'C00001'
p1764
asg18
(lp1765
S'K00494'
p1766
aS'K15854'
p1767
assS'R09314'
p1768
(dp1769
g8
(lp1770
S'C12435'
p1771
aS'C01847'
p1772
aS'C00007'
p1773
aS'C12436'
p1774
aS'C00061'
p1775
aS'C00001'
p1776
asg18
(lp1777
S'K14630'
p1778
assS'R00548'
p1779
(dp1780
g8
(lp1781
S'C00061'
p1782
aS'C00001'
p1783
aS'C00255'
p1784
aS'C00009'
p1785
asg18
(lp1786
S'K01078'
p1787
aS'K01093'
p1788
aS'K03788'
p1789
aS'K09474'
p1790
aS'K14379'
p1791
aS'K14394'
p1792
aS'K14395'
p1793
aS'K14410'
p1794
assS'R00549'
p1795
(dp1796
g8
(lp1797
S'C00002'
p1798
aS'C00255'
p1799
aS'C00008'
p1800
aS'C00061'
p1801
asg18
(lp1802
S'K00861'
p1803
aS'K11753'
p1804
assS'R09559'
p1805
(dp1806
g8
(lp1807
S'C18054'
p1808
aS'C00061'
p1809
aS'C19686'
p1810
aS'C01847'
p1811
asg18
(lp1812
ssS'R10206'
p1813
(dp1814
g8
(lp1815
S'C11145'
p1816
aS'C01847'
p1817
aS'C00007'
p1818
aS'C00061'
p1819
aS'C00094'
p1820
aS'C00001'
p1821
aS'C00067'
p1822
asg18
(lp1823
S'K00299'
p1824
aS'K04091'
p1825
assS'R09937'
p1826
(dp1827
g8
(lp1828
S'C00178'
p1829
aS'C01847'
p1830
aS'C00007'
p1831
aS'C20232'
p1832
aS'C00061'
p1833
asg18
(lp1834
ssS'R09936'
p1835
(dp1836
g8
(lp1837
S'C00106'
p1838
aS'C01847'
p1839
aS'C00007'
p1840
aS'C20231'
p1841
aS'C00061'
p1842
asg18
(lp1843
S'K09018'
p1844
aS'K09024'
p1845
assS'R09798'
p1846
(dp1847
g8
(lp1848
S'C14695'
p1849
aS'C01847'
p1850
aS'C00007'
p1851
aS'C19911'
p1852
aS'C00048'
p1853
aS'C00061'
p1854
aS'C00001'
p1855
asg18
(lp1856
ssS'R08574'
p1857
(dp1858
g8
(lp1859
S'C00063'
p1860
aS'C00255'
p1861
aS'C00112'
p1862
aS'C00061'
p1863
asg18
(lp1864
S'K07732'
p1865
assS'R09819'
p1866
(dp1867
g8
(lp1868
S'C19944'
p1869
aS'C01847'
p1870
aS'C00007'
p1871
aS'C04793'
p1872
aS'C00061'
p1873
aS'C00001'
p1874
asg18
(lp1875
S'K16047'
p1876
aS'K16048'
p1877
assS'R08908'
p1878
(dp1879
g8
(lp1880
S'C18008'
p1881
aS'C01847'
p1882
aS'C00007'
p1883
aS'C18009'
p1884
aS'C00061'
p1885
aS'C00001'
p1886
asg18
(lp1887
S'K13561'
p1888
assS'R05218'
p1889
(dp1890
g8
(lp1891
S'C06504'
p1892
aS'C01847'
p1893
aS'C06505'
p1894
aS'C00061'
p1895
aS'C00080'
p1896
asg18
(lp1897
S'K13786'
p1898
assS'R03536'
p1899
(dp1900
g8
(lp1901
S'C01847'
p1902
aS'C00071'
p1903
aS'C00007'
p1904
aS'C00060'
p1905
aS'C00205'
p1906
aS'C00061'
p1907
aS'C00001'
p1908
asg18
(lp1909
ssS'R00025'
p1910
(dp1911
g8
(lp1912
S'C18091'
p1913
aS'C00007'
p1914
aS'C01847'
p1915
aS'C00084'
p1916
aS'C00088'
p1917
aS'C00061'
p1918
aS'C00001'
p1919
asg18
(lp1920
S'K00459'
p1921
assS'R05705'
p1922
(dp1923
g8
(lp1924
S'C01847'
p1925
aS'C00003'
p1926
aS'C00061'
p1927
aS'C00004'
p1928
aS'C00080'
p1929
asg18
(lp1930
S'K05368'
p1931
aS'K13562'
p1932
aS'K14631'
p1933
aS'K19286'
p1934
assS'R00550'
p1935
(dp1936
g8
(lp1937
S'C00103'
p1938
aS'C00255'
p1939
aS'C00031'
p1940
aS'C00061'
p1941
asg18
(lp1942
ssS'R00161'
p1943
(dp1944
g8
(lp1945
S'C00002'
p1946
aS'C00061'
p1947
aS'C00013'
p1948
aS'C00016'
p1949
asg18
(lp1950
S'K00953'
p1951
aS'K11753'
p1952
aS'K14656'
p1953
assS'R00160'
p1954
(dp1955
g8
(lp1956
S'C00016'
p1957
aS'C00001'
p1958
aS'C00020'
p1959
aS'C00061'
p1960
asg18
(lp1961
S'K01513'
p1962
aS'K18453'
p1963
assS'R05706'
p1964
(dp1965
g8
(lp1966
S'C01847'
p1967
aS'C00006'
p1968
aS'C00061'
p1969
aS'C00005'
p1970
aS'C00080'
p1971
asg18
(lp1972
S'K00299'
p1973
aS'K13562'
p1974
aS'K19285'
p1975
aS'K19286'
p1976
asssg32
(lp1977
g1787
ag1767
ag1931
ag1844
ag1766
ag1951
ag1933
ag1720
ag1789
ag1754
ag1732
ag1865
ag1934
ag1975
ag1794
ag1876
ag1877
ag1962
ag1804
ag1953
ag1803
ag1845
ag1791
ag1788
ag1963
ag1744
ag1790
ag1888
ag1932
ag1745
ag1898
ag1921
ag1792
ag1793
asg34
(lp1978
S'M00125'
p1979
asg39
g1707
sg40
(lp1980
g1838
ag1938
ag1785
ag1800
ag1715
ag1905
ag1860
ag1713
ag1869
ag1798
ag1718
ag1948
ag1832
ag1881
ag1841
ag1959
ag1784
ag1940
ag1849
ag1884
ag1758
ag1717
ag1928
ag1968
ag1852
ag1829
ag1741
ag1970
ag1739
ag1949
ag1862
ag1926
ag1716
ag1736
ag1728
ag1913
ag1872
ag1916
ag1771
ag1749
ag1751
ag1774
ag1896
ag1761
ag1808
ag1917
ag1892
ag1894
ag1714
ag1762
ag1724
ag1853
ag1727
ag1810
assS'C08548'
p1981
(dp1982
g4
(dp1983
sg32
(lp1984
sg34
(lp1985
sg39
g1981
sg40
(lp1986
ssS'C09000'
p1987
(dp1988
g4
(dp1989
sg32
(lp1990
sg34
(lp1991
sg39
g1987
sg40
(lp1992
ssS'C00860'
p1993
(dp1994
g4
(dp1995
S'R01158'
p1996
(dp1997
g8
(lp1998
S'C00860'
p1999
aS'C00003'
p2000
aS'C00001'
p2001
aS'C00135'
p2002
aS'C00004'
p2003
aS'C00080'
p2004
asg18
(lp2005
S'K00013'
p2006
aS'K14152'
p2007
assS'R03012'
p2008
(dp2009
g8
(lp2010
S'C00860'
p2011
aS'C00003'
p2012
aS'C01929'
p2013
aS'C00004'
p2014
aS'C00080'
p2015
asg18
(lp2016
S'K00013'
p2017
aS'K14152'
p2018
assS'R03013'
p2019
(dp2020
g8
(lp2021
S'C01100'
p2022
aS'C00001'
p2023
aS'C00860'
p2024
aS'C00009'
p2025
asg18
(lp2026
S'K01089'
p2027
aS'K04486'
p2028
aS'K05602'
p2029
aS'K18649'
p2030
asssg32
(lp2031
g2029
ag2028
ag2030
ag2027
ag2007
ag2006
asg34
(lp2032
S'M00026'
p2033
asg39
g1993
sg40
(lp2034
g2025
ag2004
ag2002
ag2003
ag2000
ag2001
ag1999
ag2022
ag2013
assS'C00864'
p2035
(dp2036
g4
(dp2037
S'R02973'
p2038
(dp2039
g8
(lp2040
S'C00831'
p2041
aS'C00001'
p2042
aS'C00864'
p2043
aS'C01678'
p2044
asg18
(lp2045
S'K08069'
p2046
assS'R10752'
p2047
(dp2048
g8
(lp2049
S'C20814'
p2050
aS'C00001'
p2051
aS'C20816'
p2052
aS'C00864'
p2053
asg18
(lp2054
S'K18572'
p2055
assS'R03927'
p2056
(dp2057
g8
(lp2058
S'C00864'
p2059
aS'C00030'
p2060
aS'C05944'
p2061
aS'C00028'
p2062
aS'C00001'
p2063
asg18
(lp2064
ssS'R03018'
p2065
(dp2066
g8
(lp2067
S'C00002'
p2068
aS'C00864'
p2069
aS'C00008'
p2070
aS'C03492'
p2071
asg18
(lp2072
S'K00867'
p2073
aS'K01947'
p2074
aS'K03525'
p2075
aS'K09680'
p2076
assS'R10821'
p2077
(dp2078
g8
(lp2079
S'C00002'
p2080
aS'C00522'
p2081
aS'C00099'
p2082
aS'C00008'
p2083
aS'C00009'
p2084
aS'C00864'
p2085
asg18
(lp2086
ssS'R02474'
p2087
(dp2088
g8
(lp2089
S'C00864'
p2090
aS'C00001'
p2091
aS'C00522'
p2092
aS'C00099'
p2093
asg18
(lp2094
ssS'R02473'
p2095
(dp2096
g8
(lp2097
S'C00002'
p2098
aS'C00522'
p2099
aS'C00099'
p2100
aS'C00020'
p2101
aS'C00013'
p2102
aS'C00864'
p2103
asg18
(lp2104
S'K01918'
p2105
aS'K13799'
p2106
asssg32
(lp2107
g2055
ag2106
ag2074
ag2046
ag2075
ag2076
ag2105
ag2073
asg34
(lp2108
S'M00119'
p2109
aS'M00120'
p2110
asg39
g2035
sg40
(lp2111
g2044
ag2061
ag2060
ag2070
ag2082
ag2062
ag2042
ag2041
ag2052
ag2068
ag2050
ag2071
ag2043
ag2081
ag2102
ag2084
ag2101
assS'C11957'
p2112
(dp2113
g4
(dp2114
S'R06493'
p2115
(dp2116
g8
(lp2117
S'C11957'
p2118
aS'C11921'
p2119
aS'C11959'
p2120
aS'C00363'
p2121
asg18
(lp2122
S'K14375'
p2123
assS'R06492'
p2124
(dp2125
g8
(lp2126
S'C11955'
p2127
aS'C11921'
p2128
aS'C11957'
p2129
aS'C00363'
p2130
asg18
(lp2131
S'K14375'
p2132
asssg32
(lp2133
g2123
asg34
(lp2134
sg39
g2112
sg40
(lp2135
g2118
ag2127
ag2119
ag2121
ag2120
assS'C17686'
p2136
(dp2137
g4
(dp2138
sg32
(lp2139
sg34
(lp2140
sg39
g2136
sg40
(lp2141
ssS'C12056'
p2142
(dp2143
g4
(dp2144
sg32
(lp2145
sg34
(lp2146
sg39
g2142
sg40
(lp2147
ssS'C04277'
p2148
(dp2149
g4
(dp2150
S'R03448'
p2151
(dp2152
g8
(lp2153
S'C04277'
p2154
aS'C00001'
p2155
aS'C01255'
p2156
asg18
(lp2157
sssg32
(lp2158
sg34
(lp2159
sg39
g2148
sg40
(lp2160
g2156
ag2155
ag2154
assS'C10223'
p2161
(dp2162
g4
(dp2163
sg32
(lp2164
sg34
(lp2165
sg39
g2161
sg40
(lp2166
ssS'C07582'
p2167
(dp2168
g4
(dp2169
sg32
(lp2170
sg34
(lp2171
sg39
g2167
sg40
(lp2172
ssS'C18001'
p2173
(dp2174
g4
(dp2175
S'R10543'
p2176
(dp2177
g8
(lp2178
S'C20684'
p2179
aS'C00397'
p2180
aS'C00020'
p2181
aS'C18001'
p2182
asg18
(lp2183
ssS'R10767'
p2184
(dp2185
g8
(lp2186
S'C00397'
p2187
aS'C00169'
p2188
aS'C00002'
p2189
aS'C00001'
p2190
aS'C18001'
p2191
aS'C00020'
p2192
aS'C00013'
p2193
aS'C00009'
p2194
asg18
(lp2195
sssg32
(lp2196
sg34
(lp2197
sg39
g2173
sg40
(lp2198
g2193
ag2181
ag2194
ag2182
ag2179
ag2180
ag2189
ag2190
ag2188
assS'C06593'
p2199
(dp2200
g4
(dp2201
S'R05356'
p2202
(dp2203
g8
(lp2204
S'C06593'
p2205
aS'C00001'
p2206
aS'C02378'
p2207
asg18
(lp2208
sssg32
(lp2209
sg34
(lp2210
sg39
g2199
sg40
(lp2211
g2205
ag2207
ag2206
assS'C09921'
p2212
(dp2213
g4
(dp2214
sg32
(lp2215
sg34
(lp2216
sg39
g2212
sg40
(lp2217
ssS'C09633'
p2218
(dp2219
g4
(dp2220
sg32
(lp2221
sg34
(lp2222
sg39
g2218
sg40
(lp2223
ssS'C09738'
p2224
(dp2225
g4
(dp2226
sg32
(lp2227
sg34
(lp2228
sg39
g2224
sg40
(lp2229
ssS'C13831'
p2230
(dp2231
g4
(dp2232
sg32
(lp2233
sg34
(lp2234
sg39
g2230
sg40
(lp2235
ssS'C12219'
p2236
(dp2237
g4
(dp2238
sg32
(lp2239
sg34
(lp2240
sg39
g2236
sg40
(lp2241
ssS'C14308'
p2242
(dp2243
g4
(dp2244
sg32
(lp2245
sg34
(lp2246
sg39
g2242
sg40
(lp2247
ssS'C08327'
p2248
(dp2249
g4
(dp2250
sg32
(lp2251
sg34
(lp2252
sg39
g2248
sg40
(lp2253
ssS'C06162'
p2254
(dp2255
g4
(dp2256
S'R04703'
p2257
(dp2258
g8
(lp2259
S'C05191'
p2260
aS'C00007'
p2261
aS'C00080'
p2262
aS'C06162'
p2263
aS'C00027'
p2264
asg18
(lp2265
ssS'R10799'
p2266
(dp2267
g8
(lp2268
S'C05191'
p2269
aS'C00006'
p2270
aS'C06162'
p2271
aS'C00005'
p2272
aS'C00080'
p2273
asg18
(lp2274
ssS'R10798'
p2275
(dp2276
g8
(lp2277
S'C05191'
p2278
aS'C00003'
p2279
aS'C06162'
p2280
aS'C00004'
p2281
aS'C00080'
p2282
asg18
(lp2283
sssg32
(lp2284
sg34
(lp2285
sg39
g2254
sg40
(lp2286
g2264
ag2262
ag2261
ag2270
ag2272
ag2281
ag2279
ag2263
ag2260
assS'C01540'
p2287
(dp2288
g4
(dp2289
S'R03607'
p2290
(dp2291
g8
(lp2292
S'C00002'
p2293
aS'C01540'
p2294
aS'C00008'
p2295
aS'C02574'
p2296
asg18
(lp2297
sssg32
(lp2298
sg34
(lp2299
sg39
g2287
sg40
(lp2300
g2294
ag2296
ag2293
ag2295
assS'C07468'
p2301
(dp2302
g4
(dp2303
sg32
(lp2304
sg34
(lp2305
sg39
g2301
sg40
(lp2306
ssS'C07469'
p2307
(dp2308
g4
(dp2309
sg32
(lp2310
sg34
(lp2311
sg39
g2307
sg40
(lp2312
ssS'C12600'
p2313
(dp2314
g4
(dp2315
sg32
(lp2316
sg34
(lp2317
sg39
g2313
sg40
(lp2318
ssS'C11312'
p2319
(dp2320
g4
(dp2321
sg32
(lp2322
sg34
(lp2323
sg39
g2319
sg40
(lp2324
ssS'C03779'
p2325
(dp2326
g4
(dp2327
sg32
(lp2328
sg34
(lp2329
sg39
g2325
sg40
(lp2330
ssS'C16523'
p2331
(dp2332
g4
(dp2333
S'R08172'
p2334
(dp2335
g8
(lp2336
S'C11900'
p2337
aS'C16833'
p2338
aS'C16523'
p2339
aS'C00010'
p2340
asg18
(lp2341
ssS'R08173'
p2342
(dp2343
g8
(lp2344
S'C16523'
p2345
aS'C00030'
p2346
aS'C00007'
p2347
aS'C16524'
p2348
aS'C00028'
p2349
aS'C00001'
p2350
asg18
(lp2351
sssg32
(lp2352
sg34
(lp2353
sg39
g2331
sg40
(lp2354
g2340
ag2337
ag2346
ag2339
ag2338
ag2349
ag2350
ag2348
ag2347
assS'C03958'
p2355
(dp2356
g4
(dp2357
sg32
(lp2358
sg34
(lp2359
sg39
g2355
sg40
(lp2360
ssS'C14614'
p2361
(dp2362
g4
(dp2363
sg32
(lp2364
sg34
(lp2365
sg39
g2361
sg40
(lp2366
ssS'C06677'
p2367
(dp2368
g4
(dp2369
S'R05281'
p2370
(dp2371
g8
(lp2372
S'C06677'
p2373
aS'C00007'
p2374
aS'C00004'
p2375
aS'C00080'
p2376
aS'C06678'
p2377
aS'C00003'
p2378
aS'C00001'
p2379
asg18
(lp2380
S'K15768'
p2381
aS'K15769'
p2382
assS'R07663'
p2383
(dp2384
g8
(lp2385
S'C06677'
p2386
aS'C00007'
p2387
aS'C01468'
p2388
aS'C00059'
p2389
asg18
(lp2390
S'K00492'
p2391
assS'R05294'
p2392
(dp2393
g8
(lp2394
S'C06677'
p2395
aS'C00007'
p2396
aS'C00004'
p2397
aS'C00080'
p2398
aS'C06730'
p2399
aS'C00094'
p2400
aS'C00003'
p2401
asg18
(lp2402
S'K15766'
p2403
aS'K15767'
p2404
asssg32
(lp2405
g2403
ag2404
ag2381
ag2382
ag2391
asg34
(lp2406
sg39
g2367
sg40
(lp2407
g2377
ag2376
ag2374
ag2375
ag2378
ag2373
ag2379
ag2399
ag2388
ag2400
ag2389
assS'C03712'
p2408
(dp2409
g4
(dp2410
S'R00664'
p2411
(dp2412
g8
(lp2413
S'C00512'
p2414
aS'C00077'
p2415
aS'C00010'
p2416
aS'C03712'
p2417
asg18
(lp2418
sssg32
(lp2419
sg34
(lp2420
sg39
g2408
sg40
(lp2421
g2416
ag2417
ag2414
ag2415
assS'C09157'
p2422
(dp2423
g4
(dp2424
sg32
(lp2425
sg34
(lp2426
sg39
g2422
sg40
(lp2427
ssS'C12105'
p2428
(dp2429
g4
(dp2430
sg32
(lp2431
sg34
(lp2432
sg39
g2428
sg40
(lp2433
ssS'C09249'
p2434
(dp2435
g4
(dp2436
sg32
(lp2437
sg34
(lp2438
sg39
g2434
sg40
(lp2439
ssS'C11434'
p2440
(dp2441
g4
(dp2442
S'R05633'
p2443
(dp2444
g8
(lp2445
S'C11434'
p2446
aS'C00063'
p2447
aS'C11435'
p2448
aS'C00013'
p2449
asg18
(lp2450
S'K00991'
p2451
aS'K12506'
p2452
assS'R05688'
p2453
(dp2454
g8
(lp2455
S'C11434'
p2456
aS'C00006'
p2457
aS'C11437'
p2458
aS'C00005'
p2459
aS'C00080'
p2460
asg18
(lp2461
S'K00099'
p2462
asssg32
(lp2463
g2462
ag2452
ag2451
asg34
(lp2464
S'M00096'
p2465
asg39
g2440
sg40
(lp2466
g2449
ag2460
ag2457
ag2447
ag2446
ag2448
ag2458
ag2459
assS'C09247'
p2467
(dp2468
g4
(dp2469
sg32
(lp2470
sg34
(lp2471
sg39
g2467
sg40
(lp2472
ssS'C09013'
p2473
(dp2474
g4
(dp2475
sg32
(lp2476
sg34
(lp2477
sg39
g2473
sg40
(lp2478
ssS'C10233'
p2479
(dp2480
g4
(dp2481
sg32
(lp2482
sg34
(lp2483
sg39
g2479
sg40
(lp2484
ssS'C13829'
p2485
(dp2486
g4
(dp2487
sg32
(lp2488
sg34
(lp2489
sg39
g2485
sg40
(lp2490
ssS'C06447'
p2491
(dp2492
g4
(dp2493
sg32
(lp2494
sg34
(lp2495
sg39
g2491
sg40
(lp2496
ssS'C17030'
p2497
(dp2498
g4
(dp2499
sg32
(lp2500
sg34
(lp2501
sg39
g2497
sg40
(lp2502
ssS'C12228'
p2503
(dp2504
g4
(dp2505
sg32
(lp2506
sg34
(lp2507
sg39
g2503
sg40
(lp2508
ssS'C10605'
p2509
(dp2510
g4
(dp2511
sg32
(lp2512
sg34
(lp2513
sg39
g2509
sg40
(lp2514
ssS'C14235'
p2515
(dp2516
g4
(dp2517
sg32
(lp2518
sg34
(lp2519
sg39
g2515
sg40
(lp2520
ssS'C08709'
p2521
(dp2522
g4
(dp2523
sg32
(lp2524
sg34
(lp2525
sg39
g2521
sg40
(lp2526
ssS'C14236'
p2527
(dp2528
g4
(dp2529
sg32
(lp2530
sg34
(lp2531
sg39
g2527
sg40
(lp2532
ssS'C05817'
p2533
(dp2534
g4
(dp2535
S'R04031'
p2536
(dp2537
g8
(lp2538
S'C02730'
p2539
aS'C00001'
p2540
aS'C05817'
p2541
asg18
(lp2542
S'K02549'
p2543
aS'K14759'
p2544
assS'R08166'
p2545
(dp2546
g8
(lp2547
S'C16519'
p2548
aS'C05817'
p2549
aS'C00022'
p2550
asg18
(lp2551
S'K08680'
p2552
aS'K14759'
p2553
asssg32
(lp2554
g2552
ag2544
ag2543
asg34
(lp2555
S'M00116'
p2556
asg39
g2533
sg40
(lp2557
g2548
ag2539
ag2541
ag2540
ag2550
assS'C07178'
p2558
(dp2559
g4
(dp2560
sg32
(lp2561
sg34
(lp2562
sg39
g2558
sg40
(lp2563
ssS'C03240'
p2564
(dp2565
g4
(dp2566
S'R05270'
p2567
(dp2568
g8
(lp2569
S'C03240'
p2570
aS'C00005'
p2571
aS'C00080'
p2572
aS'C00007'
p2573
aS'C06635'
p2574
aS'C00006'
p2575
aS'C00001'
p2576
asg18
(lp2577
S'K14366'
p2578
assS'R00918'
p2579
(dp2580
g8
(lp2581
S'C00100'
p2582
aS'C00683'
p2583
aS'C00005'
p2584
aS'C00080'
p2585
aS'C03240'
p2586
aS'C00010'
p2587
aS'C00011'
p2588
aS'C00001'
p2589
aS'C00006'
p2590
asg18
(lp2591
S'K10817'
p2592
asssg32
(lp2593
g2578
ag2592
asg34
(lp2594
sg39
g2564
sg40
(lp2595
g2587
ag2588
ag2574
ag2582
ag2572
ag2573
ag2575
ag2571
ag2576
ag2583
ag2570
assS'C10689'
p2596
(dp2597
g4
(dp2598
sg32
(lp2599
sg34
(lp2600
sg39
g2596
sg40
(lp2601
ssS'C12183'
p2602
(dp2603
g4
(dp2604
sg32
(lp2605
sg34
(lp2606
sg39
g2602
sg40
(lp2607
ssS'C03797'
p2608
(dp2609
g4
(dp2610
S'R04036'
p2611
(dp2612
g8
(lp2613
S'C02740'
p2614
aS'C00007'
p2615
aS'C00002'
p2616
aS'C03797'
p2617
aS'C00205'
p2618
aS'C00020'
p2619
aS'C00013'
p2620
aS'C00011'
p2621
asg18
(lp2622
sssg32
(lp2623
sg34
(lp2624
sg39
g2608
sg40
(lp2625
g2621
ag2620
ag2619
ag2615
ag2616
ag2614
ag2618
ag2617
assS'C02704'
p2626
(dp2627
g4
(dp2628
S'R01145'
p2629
(dp2630
g8
(lp2631
S'C02704'
p2632
aS'C00001'
p2633
aS'C00132'
p2634
aS'C00059'
p2635
asg18
(lp2636
sssg32
(lp2637
sg34
(lp2638
sg39
g2626
sg40
(lp2639
g2635
ag2633
ag2632
ag2634
assS'C11899'
p2640
(dp2641
g4
(dp2642
S'R06310'
p2643
(dp2644
g8
(lp2645
S'C11899'
p2646
aS'C00512'
p2647
aS'C11700'
p2648
aS'C00010'
p2649
asg18
(lp2650
S'K12925'
p2651
assS'R06319'
p2652
(dp2653
g8
(lp2654
S'C20151'
p2655
aS'C11899'
p2656
asg18
(lp2657
ssS'R06318'
p2658
(dp2659
g8
(lp2660
S'C11897'
p2661
aS'C11899'
p2662
asg18
(lp2663
sssg32
(lp2664
g2651
asg34
(lp2665
sg39
g2640
sg40
(lp2666
g2649
ag2647
ag2661
ag2648
ag2655
ag2646
assS'C15538'
p2667
(dp2668
g4
(dp2669
S'R07252'
p2670
(dp2671
g8
(lp2672
S'C00024'
p2673
aS'C15538'
p2674
aS'C00010'
p2675
aS'C15537'
p2676
asg18
(lp2677
sssg32
(lp2678
sg34
(lp2679
sg39
g2667
sg40
(lp2680
g2675
ag2673
ag2676
ag2674
assS'C15967'
p2681
(dp2682
g4
(dp2683
S'R07566'
p2684
(dp2685
g8
(lp2686
S'C15965'
p2687
aS'C15967'
p2688
asg18
(lp2689
S'K09836'
p2690
assS'R07567'
p2691
(dp2692
g8
(lp2693
S'C15966'
p2694
aS'C15967'
p2695
asg18
(lp2696
S'K09836'
p2697
assS'R07568'
p2698
(dp2699
g8
(lp2700
S'C08583'
p2701
aS'C00004'
p2702
aS'C00080'
p2703
aS'C00007'
p2704
aS'C15967'
p2705
aS'C00003'
p2706
aS'C00001'
p2707
asg18
(lp2708
S'K02294'
p2709
assS'R07572'
p2710
(dp2711
g8
(lp2712
S'C15967'
p2713
aS'C00004'
p2714
aS'C00080'
p2715
aS'C00007'
p2716
aS'C08580'
p2717
aS'C00003'
p2718
aS'C00001'
p2719
asg18
(lp2720
S'K02294'
p2721
asssg32
(lp2722
g2690
ag2709
asg34
(lp2723
sg39
g2681
sg40
(lp2724
g2701
ag2717
ag2694
ag2688
ag2703
ag2704
ag2702
ag2706
ag2707
ag2687
assS'C15739'
p2725
(dp2726
g4
(dp2727
sg32
(lp2728
sg34
(lp2729
sg39
g2725
sg40
(lp2730
ssS'C00127'
p2731
(dp2732
g4
(dp2733
S'R00094'
p2734
(dp2735
g8
(lp2736
S'C00051'
p2737
aS'C00003'
p2738
aS'C00127'
p2739
aS'C00004'
p2740
aS'C00080'
p2741
asg18
(lp2742
S'K00383'
p2743
assS'R01108'
p2744
(dp2745
g8
(lp2746
S'C05422'
p2747
aS'C00051'
p2748
aS'C00127'
p2749
aS'C00072'
p2750
asg18
(lp2751
ssS'R01292'
p2752
(dp2753
g8
(lp2754
S'C01817'
p2755
aS'C00051'
p2756
aS'C00155'
p2757
aS'C00127'
p2758
asg18
(lp2759
ssS'R03984'
p2760
(dp2761
g8
(lp2762
S'C02587'
p2763
aS'C00127'
p2764
aS'C00001'
p2765
aS'C03684'
p2766
aS'C00051'
p2767
asg18
(lp2768
S'K00310'
p2769
assS'R09338'
p2770
(dp2771
g8
(lp2772
S'C18641'
p2773
aS'C00007'
p2774
aS'C00051'
p2775
aS'C18642'
p2776
aS'C00011'
p2777
aS'C00001'
p2778
aS'C00127'
p2779
asg18
(lp2780
S'K15958'
p2781
assS'R05717'
p2782
(dp2783
g8
(lp2784
S'C00020'
p2785
aS'C00094'
p2786
aS'C00127'
p2787
aS'C00224'
p2788
aS'C00051'
p2789
asg18
(lp2790
S'K05907'
p2791
assS'R05269'
p2792
(dp2793
g8
(lp2794
S'C06600'
p2795
aS'C00051'
p2796
aS'C06601'
p2797
aS'C00127'
p2798
aS'C01327'
p2799
asg18
(lp2800
S'K15239'
p2801
assS'R01109'
p2802
(dp2803
g8
(lp2804
S'C01420'
p2805
aS'C00051'
p2806
aS'C00127'
p2807
aS'C00736'
p2808
asg18
(lp2809
ssS'R05267'
p2810
(dp2811
g8
(lp2812
S'C01327'
p2813
aS'C00530'
p2814
aS'C00127'
p2815
aS'C06601'
p2816
aS'C00051'
p2817
asg18
(lp2818
S'K15239'
p2819
assS'R01111'
p2820
(dp2821
g8
(lp2822
S'C00010'
p2823
aS'C00127'
p2824
aS'C00920'
p2825
aS'C00051'
p2826
asg18
(lp2827
ssS'R00115'
p2828
(dp2829
g8
(lp2830
S'C00051'
p2831
aS'C00006'
p2832
aS'C00127'
p2833
aS'C00005'
p2834
aS'C00080'
p2835
asg18
(lp2836
S'K00383'
p2837
assS'R09368'
p2838
(dp2839
g8
(lp2840
S'C18870'
p2841
aS'C00051'
p2842
aS'C18871'
p2843
aS'C00127'
p2844
asg18
(lp2845
ssS'R01875'
p2846
(dp2847
g8
(lp2848
S'C00320'
p2849
aS'C00051'
p2850
aS'C00080'
p2851
aS'C00094'
p2852
aS'C00127'
p2853
aS'C00283'
p2854
aS'C17267'
p2855
asg18
(lp2856
ssS'R03915'
p2857
(dp2858
g8
(lp2859
S'C02315'
p2860
aS'C00127'
p2861
aS'C02582'
p2862
aS'C00051'
p2863
asg18
(lp2864
S'K05360'
p2865
assS'R09367'
p2866
(dp2867
g8
(lp2868
S'C05684'
p2869
aS'C00051'
p2870
aS'C00080'
p2871
aS'C18870'
p2872
aS'C00127'
p2873
aS'C00001'
p2874
asg18
(lp2875
ssS'R00120'
p2876
(dp2877
g8
(lp2878
S'C00007'
p2879
aS'C00051'
p2880
aS'C00127'
p2881
aS'C00027'
p2882
asg18
(lp2883
ssS'R02824'
p2884
(dp2885
g8
(lp2886
S'C00723'
p2887
aS'C00051'
p2888
aS'C02288'
p2889
aS'C00127'
p2890
asg18
(lp2891
S'K05360'
p2892
assS'R01110'
p2893
(dp2894
g8
(lp2895
S'C20788'
p2896
aS'C00051'
p2897
aS'C00127'
p2898
aS'C05330'
p2899
asg18
(lp2900
ssS'R01113'
p2901
(dp2902
g8
(lp2903
S'C00491'
p2904
aS'C00051'
p2905
aS'C00127'
p2906
aS'C00097'
p2907
asg18
(lp2908
ssS'R04039'
p2909
(dp2910
g8
(lp2911
S'C03544'
p2912
aS'C00127'
p2913
aS'C02756'
p2914
aS'C00051'
p2915
asg18
(lp2916
ssS'R05748'
p2917
(dp2918
g8
(lp2919
S'C07294'
p2920
aS'C00051'
p2921
aS'C07295'
p2922
aS'C00127'
p2923
aS'C00001'
p2924
asg18
(lp2925
ssS'R05403'
p2926
(dp2927
g8
(lp2928
S'C07099'
p2929
aS'C00051'
p2930
aS'C07097'
p2931
aS'C00127'
p2932
aS'C01327'
p2933
asg18
(lp2934
S'K15241'
p2935
assS'R05402'
p2936
(dp2937
g8
(lp2938
S'C03434'
p2939
aS'C00051'
p2940
aS'C07099'
p2941
aS'C00127'
p2942
aS'C01327'
p2943
asg18
(lp2944
S'K15241'
p2945
assS'R03167'
p2946
(dp2947
g8
(lp2948
S'C01025'
p2949
aS'C00051'
p2950
aS'C01356'
p2951
aS'C00127'
p2952
aS'C00001'
p2953
asg18
(lp2954
S'K05361'
p2955
assS'R00274'
p2956
(dp2957
g8
(lp2958
S'C00027'
p2959
aS'C00051'
p2960
aS'C00127'
p2961
aS'C00001'
p2962
asg18
(lp2963
S'K00432'
p2964
assS'R07034'
p2965
(dp2966
g8
(lp2967
S'C00051'
p2968
aS'C05356'
p2969
aS'C00127'
p2970
aS'C04805'
p2971
aS'C00001'
p2972
asg18
(lp2973
S'K00432'
p2974
assS'R07035'
p2975
(dp2976
g8
(lp2977
S'C00051'
p2978
aS'C05966'
p2979
aS'C00127'
p2980
aS'C04742'
p2981
aS'C00001'
p2982
asg18
(lp2983
S'K00432'
p2984
asssg32
(lp2985
g2791
ag2955
ag2865
ag2769
ag2801
ag2743
ag2964
ag2781
ag2935
asg34
(lp2986
sg39
g2731
sg40
(lp2987
g2855
ag2929
ag2882
ag2949
ag2785
ag2854
ag2739
ag2774
ag2832
ag2834
ag2740
ag2738
ag2765
ag2795
ag2904
ag2922
ag2920
ag2969
ag2747
ag2869
ag2825
ag2981
ag2814
ag2907
ag2899
ag2755
ag2914
ag2766
ag2737
ag2912
ag2786
ag2849
ag2799
ag2887
ag2823
ag2777
ag2773
ag2776
ag2889
ag2750
ag2757
ag2896
ag2797
ag2931
ag2979
ag2805
ag2788
ag2741
ag2939
ag2971
ag2862
ag2808
ag2951
ag2763
ag2860
ag2843
ag2841
assS'C03894'
p2988
(dp2989
g4
(dp2990
S'R04236'
p2991
(dp2992
g8
(lp2993
S'C03894'
p2994
aS'C00003'
p2995
aS'C03505'
p2996
aS'C00004'
p2997
aS'C00080'
p2998
asg18
(lp2999
sssg32
(lp3000
sg34
(lp3001
sg39
g2988
sg40
(lp3002
g2994
ag2997
ag2995
ag2996
ag2998
assS'C14446'
p3003
(dp3004
g4
(dp3005
sg32
(lp3006
sg34
(lp3007
sg39
g3003
sg40
(lp3008
ssS'C06667'
p3009
(dp3010
g4
(dp3011
sg32
(lp3012
sg34
(lp3013
sg39
g3009
sg40
(lp3014
ssS'C10617'
p3015
(dp3016
g4
(dp3017
sg32
(lp3018
sg34
(lp3019
sg39
g3015
sg40
(lp3020
ssS'C12946'
p3021
(dp3022
g4
(dp3023
sg32
(lp3024
sg34
(lp3025
sg39
g3021
sg40
(lp3026
ssS'C13790'
p3027
(dp3028
g4
(dp3029
sg32
(lp3030
sg34
(lp3031
sg39
g3027
sg40
(lp3032
ssS'C17614'
p3033
(dp3034
g4
(dp3035
sg32
(lp3036
sg34
(lp3037
sg39
g3033
sg40
(lp3038
ssS'C10846'
p3039
(dp3040
g4
(dp3041
sg32
(lp3042
sg34
(lp3043
sg39
g3039
sg40
(lp3044
ssS'C17902'
p3045
(dp3046
g4
(dp3047
sg32
(lp3048
sg34
(lp3049
sg39
g3045
sg40
(lp3050
ssS'C18021'
p3051
(dp3052
g4
(dp3053
S'R08921'
p3054
(dp3055
g8
(lp3056
S'C18021'
p3057
aS'C00005'
p3058
aS'C00080'
p3059
aS'C00007'
p3060
aS'C18022'
p3061
aS'C00006'
p3062
asg18
(lp3063
S'K13071'
p3064
assS'R08974'
p3065
(dp3066
g8
(lp3067
S'C18021'
p3068
aS'C00001'
p3069
aS'C18064'
p3070
aS'C00132'
p3071
aS'C00011'
p3072
asg18
(lp3073
S'K13544'
p3074
assS'R08975'
p3075
(dp3076
g8
(lp3077
S'C18021'
p3078
aS'C00001'
p3079
aS'C18063'
p3080
aS'C00132'
p3081
asg18
(lp3082
ssS'R09033'
p3083
(dp3084
g8
(lp3085
S'C02139'
p3086
aS'C00080'
p3087
aS'C18021'
p3088
aS'C00305'
p3089
asg18
(lp3090
sssg32
(lp3091
g3074
ag3064
asg34
(lp3092
sg39
g3051
sg40
(lp3093
g3057
ag3061
ag3089
ag3059
ag3060
ag3062
ag3058
ag3071
ag3069
ag3070
ag3086
ag3072
ag3080
assS'C09860'
p3094
(dp3095
g4
(dp3096
sg32
(lp3097
sg34
(lp3098
sg39
g3094
sg40
(lp3099
ssS'C08713'
p3100
(dp3101
g4
(dp3102
sg32
(lp3103
sg34
(lp3104
sg39
g3100
sg40
(lp3105
ssS'C08261'
p3106
(dp3107
g4
(dp3108
sg32
(lp3109
sg34
(lp3110
sg39
g3106
sg40
(lp3111
ssS'C11913'
p3112
(dp3113
g4
(dp3114
sg32
(lp3115
sg34
(lp3116
sg39
g3112
sg40
(lp3117
ssS'C03577'
p3118
(dp3119
g4
(dp3120
S'R04256'
p3121
(dp3122
g8
(lp3123
S'C05952'
p3124
aS'C00007'
p3125
aS'C00005'
p3126
aS'C00080'
p3127
aS'C03577'
p3128
aS'C00006'
p3129
aS'C00001'
p3130
asg18
(lp3131
sssg32
(lp3132
sg34
(lp3133
sg39
g3118
sg40
(lp3134
g3124
ag3127
ag3125
ag3129
ag3126
ag3130
ag3128
assS'C17515'
p3135
(dp3136
g4
(dp3137
sg32
(lp3138
sg34
(lp3139
sg39
g3135
sg40
(lp3140
ssS'C08943'
p3141
(dp3142
g4
(dp3143
sg32
(lp3144
sg34
(lp3145
sg39
g3141
sg40
(lp3146
ssS'C08285'
p3147
(dp3148
g4
(dp3149
S'R09460'
p3150
(dp3151
g8
(lp3152
S'C18218'
p3153
aS'C00005'
p3154
aS'C00007'
p3155
aS'C00080'
p3156
aS'C08285'
p3157
aS'C00006'
p3158
aS'C00001'
p3159
asg18
(lp3160
S'K15399'
p3161
asssg32
(lp3162
g3161
asg34
(lp3163
sg39
g3147
sg40
(lp3164
g3156
ag3155
ag3158
ag3154
ag3159
ag3157
ag3153
assS'C14872'
p3165
(dp3166
g4
(dp3167
S'R07114'
p3168
(dp3169
g8
(lp3170
S'C14871'
p3171
aS'C14872'
p3172
asg18
(lp3173
sssg32
(lp3174
sg34
(lp3175
sg39
g3165
sg40
(lp3176
g3172
ag3171
assS'C08944'
p3177
(dp3178
g4
(dp3179
sg32
(lp3180
sg34
(lp3181
sg39
g3177
sg40
(lp3182
ssS'C18069'
p3183
(dp3184
g4
(dp3185
S'R08983'
p3186
(dp3187
g8
(lp3188
S'C00223'
p3189
aS'C00315'
p3190
aS'C18069'
p3191
aS'C00010'
p3192
asg18
(lp3193
ssS'R08984'
p3194
(dp3195
g8
(lp3196
S'C18069'
p3197
aS'C18070'
p3198
asg18
(lp3199
S'K15506'
p3200
asssg32
(lp3201
g3200
asg34
(lp3202
sg39
g3183
sg40
(lp3203
g3192
ag3198
ag3189
ag3191
ag3190
assS'C06771'
p3204
(dp3205
g4
(dp3206
S'R05382'
p3207
(dp3208
g8
(lp3209
S'C06771'
p3210
aS'C06772'
p3211
aS'C00084'
p3212
asg18
(lp3213
sssg32
(lp3214
sg34
(lp3215
sg39
g3204
sg40
(lp3216
g3211
ag3210
ag3212
assS'C09948'
p3217
(dp3218
g4
(dp3219
sg32
(lp3220
sg34
(lp3221
sg39
g3217
sg40
(lp3222
ssS'C12333'
p3223
(dp3224
g4
(dp3225
sg32
(lp3226
sg34
(lp3227
sg39
g3223
sg40
(lp3228
ssS'C07310'
p3229
(dp3230
g4
(dp3231
sg32
(lp3232
sg34
(lp3233
sg39
g3229
sg40
(lp3234
ssS'C16308'
p3235
(dp3236
g4
(dp3237
sg32
(lp3238
sg34
(lp3239
sg39
g3235
sg40
(lp3240
ssS'C06497'
p3241
(dp3242
g4
(dp3243
sg32
(lp3244
sg34
(lp3245
sg39
g3241
sg40
(lp3246
ssS'C06495'
p3247
(dp3248
g4
(dp3249
sg32
(lp3250
sg34
(lp3251
sg39
g3247
sg40
(lp3252
ssS'C02821'
p3253
(dp3254
g4
(dp3255
S'R02837'
p3256
(dp3257
g8
(lp3258
S'C00024'
p3259
aS'C00735'
p3260
aS'C00010'
p3261
aS'C02821'
p3262
asg18
(lp3263
sssg32
(lp3264
sg34
(lp3265
sg39
g3253
sg40
(lp3266
g3260
ag3259
ag3261
ag3262
assS'C09780'
p3267
(dp3268
g4
(dp3269
sg32
(lp3270
sg34
(lp3271
sg39
g3267
sg40
(lp3272
ssS'C08362'
p3273
(dp3274
g4
(dp3275
S'R08162'
p3276
(dp3277
g8
(lp3278
S'C16520'
p3279
aS'C00001'
p3280
aS'C00229'
p3281
aS'C08362'
p3282
asg18
(lp3283
S'K10782'
p3284
asssg32
(lp3285
g3284
asg34
(lp3286
sg39
g3273
sg40
(lp3287
g3279
ag3282
ag3281
ag3280
assS'C07915'
p3288
(dp3289
g4
(dp3290
sg32
(lp3291
sg34
(lp3292
sg39
g3288
sg40
(lp3293
ssS'C15465'
p3294
(dp3295
g4
(dp3296
sg32
(lp3297
sg34
(lp3298
sg39
g3294
sg40
(lp3299
ssS'C02892'
p3300
(dp3301
g4
(dp3302
S'R00072'
p3303
(dp3304
g8
(lp3305
S'C05856'
p3306
aS'C00007'
p3307
aS'C00001'
p3308
aS'C00027'
p3309
aS'C02892'
p3310
asg18
(lp3311
ssS'R02132'
p3312
(dp3313
g8
(lp3314
S'C00378'
p3315
aS'C00007'
p3316
aS'C00001'
p3317
aS'C02892'
p3318
aS'C00027'
p3319
asg18
(lp3320
sssg32
(lp3321
sg34
(lp3322
sg39
g3300
sg40
(lp3323
g3309
ag3307
ag3306
ag3315
ag3308
ag3310
assS'C09176'
p3324
(dp3325
g4
(dp3326
sg32
(lp3327
sg34
(lp3328
sg39
g3324
sg40
(lp3329
ssS'C08807'
p3330
(dp3331
g4
(dp3332
sg32
(lp3333
sg34
(lp3334
sg39
g3330
sg40
(lp3335
ssS'C11696'
p3336
(dp3337
g4
(dp3338
sg32
(lp3339
sg34
(lp3340
sg39
g3336
sg40
(lp3341
ssS'C09265'
p3342
(dp3343
g4
(dp3344
sg32
(lp3345
sg34
(lp3346
sg39
g3342
sg40
(lp3347
ssS'C11066'
p3348
(dp3349
g4
(dp3350
sg32
(lp3351
sg34
(lp3352
sg39
g3348
sg40
(lp3353
ssS'C17659'
p3354
(dp3355
g4
(dp3356
sg32
(lp3357
sg34
(lp3358
sg39
g3354
sg40
(lp3359
ssS'C18130'
p3360
(dp3361
g4
(dp3362
sg32
(lp3363
sg34
(lp3364
sg39
g3360
sg40
(lp3365
ssS'C10937'
p3366
(dp3367
g4
(dp3368
sg32
(lp3369
sg34
(lp3370
sg39
g3366
sg40
(lp3371
ssS'C00836'
p3372
(dp3373
g4
(dp3374
S'R02976'
p3375
(dp3376
g8
(lp3377
S'C00002'
p3378
aS'C00836'
p3379
aS'C00008'
p3380
aS'C01120'
p3381
asg18
(lp3382
S'K04718'
p3383
assS'R02978'
p3384
(dp3385
g8
(lp3386
S'C00836'
p3387
aS'C00006'
p3388
aS'C02934'
p3389
aS'C00005'
p3390
aS'C00080'
p3391
asg18
(lp3392
S'K04708'
p3393
assS'R02979'
p3394
(dp3395
g8
(lp3396
S'C00836'
p3397
aS'C00016'
p3398
aS'C01352'
p3399
aS'C00319'
p3400
asg18
(lp3401
ssS'R06518'
p3402
(dp3403
g8
(lp3404
S'C12126'
p3405
aS'C00001'
p3406
aS'C00162'
p3407
aS'C00836'
p3408
asg18
(lp3409
S'K01441'
p3410
aS'K04711'
p3411
assS'R06525'
p3412
(dp3413
g8
(lp3414
S'C00836'
p3415
aS'C00005'
p3416
aS'C00080'
p3417
aS'C00007'
p3418
aS'C12144'
p3419
aS'C00006'
p3420
aS'C00001'
p3421
asg18
(lp3422
S'K04713'
p3423
assS'R06520'
p3424
(dp3425
g8
(lp3426
S'C01120'
p3427
aS'C00001'
p3428
aS'C00836'
p3429
aS'C00009'
p3430
asg18
(lp3431
S'K01080'
p3432
aS'K04716'
p3433
aS'K04717'
p3434
assS'R06517'
p3435
(dp3436
g8
(lp3437
S'C00040'
p3438
aS'C00836'
p3439
aS'C00010'
p3440
aS'C12126'
p3441
asg18
(lp3442
S'K04709'
p3443
aS'K04710'
p3444
asssg32
(lp3445
g3423
ag3410
ag3411
ag3444
ag3434
ag3433
ag3432
ag3383
ag3393
ag3443
asg34
(lp3446
S'M00094'
p3447
aS'M00099'
p3448
asg39
g3372
sg40
(lp3449
g3440
ag3430
ag3398
ag3380
ag3379
ag3388
ag3390
ag3391
ag3378
ag3406
ag3405
ag3418
ag3399
ag3438
ag3407
ag3419
ag3400
ag3381
ag3389
assS'C06782'
p3450
(dp3451
g4
(dp3452
sg32
(lp3453
sg34
(lp3454
sg39
g3450
sg40
(lp3455
ssS'C00526'
p3456
(dp3457
g4
(dp3458
S'R02099'
p3459
(dp3460
g8
(lp3461
S'C00002'
p3462
aS'C00526'
p3463
aS'C00008'
p3464
aS'C00365'
p3465
asg18
(lp3466
S'K00857'
p3467
assS'R01879'
p3468
(dp3469
g8
(lp3470
S'C00526'
p3471
aS'C00026'
p3472
aS'C00007'
p3473
aS'C00299'
p3474
aS'C00042'
p3475
aS'C00011'
p3476
asg18
(lp3477
ssS'R02486'
p3478
(dp3479
g8
(lp3480
S'C00526'
p3481
aS'C00026'
p3482
aS'C00007'
p3483
aS'C02674'
p3484
aS'C00106'
p3485
aS'C00042'
p3486
aS'C00011'
p3487
asg18
(lp3488
ssS'R02102'
p3489
(dp3490
g8
(lp3491
S'C00365'
p3492
aS'C00001'
p3493
aS'C00526'
p3494
aS'C00009'
p3495
asg18
(lp3496
S'K01081'
p3497
aS'K03787'
p3498
aS'K08693'
p3499
aS'K08722'
p3500
aS'K08723'
p3501
aS'K11751'
p3502
assS'R02484'
p3503
(dp3504
g8
(lp3505
S'C00526'
p3506
aS'C00009'
p3507
aS'C00106'
p3508
aS'C00672'
p3509
asg18
(lp3510
S'K00756'
p3511
aS'K00757'
p3512
aS'K00758'
p3513
aS'K03783'
p3514
aS'K03784'
p3515
assS'R02485'
p3516
(dp3517
g8
(lp3518
S'C00881'
p3519
aS'C00001'
p3520
aS'C00526'
p3521
aS'C00014'
p3522
asg18
(lp3523
S'K01489'
p3524
aS'K10989'
p3525
asssg32
(lp3526
g3499
ag3514
ag3467
ag3500
ag3501
ag3498
ag3502
ag3513
ag3524
ag3497
ag3525
ag3512
ag3511
ag3515
asg34
(lp3527
sg39
g3456
sg40
(lp3528
g3485
ag3476
ag3472
ag3522
ag3495
ag3464
ag3473
ag3463
ag3462
ag3493
ag3474
ag3475
ag3484
ag3465
ag3509
ag3519
assS'C08955'
p3529
(dp3530
g4
(dp3531
sg32
(lp3532
sg34
(lp3533
sg39
g3529
sg40
(lp3534
ssS'C17158'
p3535
(dp3536
g4
(dp3537
sg32
(lp3538
sg34
(lp3539
sg39
g3535
sg40
(lp3540
ssS'C01844'
p3541
(dp3542
g4
(dp3543
sg32
(lp3544
sg34
(lp3545
sg39
g3541
sg40
(lp3546
ssS'C06475'
p3547
(dp3548
g4
(dp3549
sg32
(lp3550
sg34
(lp3551
sg39
g3547
sg40
(lp3552
ssS'C11134'
p3553
(dp3554
g4
(dp3555
S'R02502'
p3556
(dp3557
g8
(lp3558
S'C00535'
p3559
aS'C00167'
p3560
aS'C11134'
p3561
aS'C00015'
p3562
asg18
(lp3563
S'K00699'
p3564
asssg32
(lp3565
g3564
asg34
(lp3566
sg39
g3553
sg40
(lp3567
g3560
ag3561
ag3559
ag3562
assS'C01212'
p3568
(dp3569
g4
(dp3570
S'R03193'
p3571
(dp3572
g8
(lp3573
S'C00002'
p3574
aS'C01050'
p3575
aS'C00041'
p3576
aS'C00008'
p3577
aS'C00009'
p3578
aS'C01212'
p3579
asg18
(lp3580
S'K01924'
p3581
assS'R02783'
p3582
(dp3583
g8
(lp3584
S'C00002'
p3585
aS'C01212'
p3586
aS'C00217'
p3587
aS'C00008'
p3588
aS'C00009'
p3589
aS'C00692'
p3590
asg18
(lp3591
S'K01925'
p3592
asssg32
(lp3593
g3592
ag3581
asg34
(lp3594
sg39
g3568
sg40
(lp3595
g3575
ag3578
ag3577
ag3574
ag3590
ag3576
ag3587
ag3579
assS'C08317'
p3596
(dp3597
g4
(dp3598
sg32
(lp3599
sg34
(lp3600
sg39
g3596
sg40
(lp3601
ssS'C02008'
p3602
(dp3603
g4
(dp3604
S'R03799'
p3605
(dp3606
g8
(lp3607
S'C00235'
p3608
aS'C02006'
p3609
aS'C00013'
p3610
aS'C02008'
p3611
asg18
(lp3612
sssg32
(lp3613
sg34
(lp3614
sg39
g3602
sg40
(lp3615
g3610
ag3609
ag3608
ag3611
ass.