ccopy_reg
_reconstructor
p1
(cpandas.core.frame
DataFrame
p2
c__builtin__
object
p3
NtRp4
(dp5
S'_metadata'
p6
(lp7
sS'_typ'
p8
S'dataframe'
p9
sS'_data'
p10
g1
(cpandas.core.internals
BlockManager
p11
g3
NtRp12
((lp13
cpandas.core.index
_new_Index
p14
(cpandas.core.index
Index
p15
(dp16
S'data'
p17
cnumpy.core.multiarray
_reconstruct
p18
(cnumpy
ndarray
p19
(I0
tS'b'
tRp20
(I1
(L7L
tcnumpy
dtype
p21
(S'O8'
I0
I1
tRp22
(I3
S'|'
NNNI-1
I-1
I63
tbI00
(lp23
S'pathwayName'
p24
aS'Km0'
p25
aS'Km1'
p26
aS'Km2'
p27
aS'Km3'
p28
aS'Km4'
p29
aS'Km5'
p30
atbsS'name'
p31
NstRp32
ag14
(g15
(dp33
g17
g18
(g19
(I0
tS'b'
tRp34
(I1
(L67L
tg22
I00
(lp35
S'ko00020'
p36
aS'ko00040'
p37
aS'ko00051'
p38
aS'ko00052'
p39
aS'ko00053'
p40
aS'ko00061'
p41
aS'ko00120'
p42
aS'ko00121'
p43
aS'ko00130'
p44
aS'ko00140'
p45
aS'ko00190'
p46
aS'ko00220'
p47
aS'ko00230'
p48
aS'ko00240'
p49
aS'ko00250'
p50
aS'ko00270'
p51
aS'ko00280'
p52
aS'ko00290'
p53
aS'ko00300'
p54
aS'ko00310'
p55
aS'ko00330'
p56
aS'ko00340'
p57
aS'ko00350'
p58
aS'ko00360'
p59
aS'ko00363'
p60
aS'ko00400'
p61
aS'ko00410'
p62
aS'ko00430'
p63
aS'ko00471'
p64
aS'ko00480'
p65
aS'ko00590'
p66
aS'ko00592'
p67
aS'ko00620'
p68
aS'ko00627'
p69
aS'ko00630'
p70
aS'ko00640'
p71
aS'ko00650'
p72
aS'ko00660'
p73
aS'ko00720'
p74
aS'ko00740'
p75
aS'ko00750'
p76
aS'ko00760'
p77
aS'ko00770'
p78
aS'ko00780'
p79
aS'ko00830'
p80
aS'ko00900'
p81
aS'ko00906'
p82
aS'ko00908'
p83
aS'ko00920'
p84
aS'ko00930'
p85
aS'ko00940'
p86
aS'ko00944'
p87
aS'ko00945'
p88
aS'ko00950'
p89
aS'ko00960'
p90
aS'ko00970'
p91
aS'ko00980'
p92
aS'ko00982'
p93
aS'ko00983'
p94
aS'ko02020'
p95
aS'ko04611'
p96
aS'ko04723'
p97
aS'ko04726'
p98
aS'ko04727'
p99
aS'ko04913'
p100
aS'ko04921'
p101
aS'ko04964'
p102
atbsg31
NstRp103
a(lp104
g18
(g19
(I0
tS'b'
tRp105
(I1
(L7L
L67L
tg22
I00
(lp106
S'Citrate cycle (TCA cycle)'
p107
aS'Pentose and glucuronate interconversions'
p108
aS'Fructose and mannose metabolism'
p109
aS'Galactose metabolism'
p110
aS'Ascorbate and aldarate metabolism'
p111
aS'Fatty acid biosynthesis'
p112
aS'Primary bile acid biosynthesis'
p113
aS'Secondary bile acid biosynthesis'
p114
aS'Ubiquinone and other terpenoid-quinone biosynthesis'
p115
aS'Steroid hormone biosynthesis'
p116
aS'Oxidative phosphorylation'
p117
aS'Arginine biosynthesis'
p118
aS'Purine metabolism'
p119
aS'Pyrimidine metabolism'
p120
aS'Alanine, aspartate and glutamate metabolism'
p121
aS'Cysteine and methionine metabolism'
p122
aS'Valine, leucine and isoleucine degradation'
p123
aS'Valine, leucine and isoleucine biosynthesis'
p124
aS'Lysine biosynthesis'
p125
aS'Lysine degradation'
p126
aS'Arginine and proline metabolism'
p127
aS'Histidine metabolism'
p128
aS'Tyrosine metabolism'
p129
aS'Phenylalanine metabolism'
p130
aS'Bisphenol degradation'
p131
aS'Phenylalanine, tyrosine and tryptophan biosynthesis'
p132
aS'beta-Alanine metabolism'
p133
aS'Taurine and hypotaurine metabolism'
p134
aS'D-Glutamine and D-glutamate metabolism'
p135
aS'Glutathione metabolism'
p136
aS'Arachidonic acid metabolism'
p137
aS'alpha-Linolenic acid metabolism'
p138
aS'Pyruvate metabolism'
p139
aS'Aminobenzoate degradation'
p140
aS'Glyoxylate and dicarboxylate metabolism'
p141
aS'Propanoate metabolism'
p142
aS'Butanoate metabolism'
p143
aS'C5-Branched dibasic acid metabolism'
p144
aS'Carbon fixation pathways in prokaryotes'
p145
aS'Riboflavin metabolism'
p146
aS'Vitamin B6 metabolism'
p147
aS'Nicotinate and nicotinamide metabolism'
p148
aS'Pantothenate and CoA biosynthesis'
p149
aS'Biotin metabolism'
p150
aS'Retinol metabolism'
p151
aS'Terpenoid backbone biosynthesis'
p152
aS'Carotenoid biosynthesis'
p153
aS'Zeatin biosynthesis'
p154
aS'Sulfur metabolism'
p155
aS'Caprolactam degradation'
p156
aS'Phenylpropanoid biosynthesis'
p157
aS'Flavone and flavonol biosynthesis'
p158
aS'Stilbenoid, diarylheptanoid and gingerol biosynthesis'
p159
aS'Isoquinoline alkaloid biosynthesis'
p160
aS'Tropane, piperidine and pyridine alkaloid biosynthesis'
p161
aS'Aminoacyl-tRNA biosynthesis'
p162
aS'Metabolism of xenobiotics by cytochrome P450'
p163
aS'Drug metabolism - cytochrome P450'
p164
aS'Drug metabolism - other enzymes'
p165
aS'Two-component system'
p166
aS'Platelet activation'
p167
aS'Retrograde endocannabinoid signaling'
p168
aS'Serotonergic synapse'
p169
aS'GABAergic synapse'
p170
aS'Ovarian steroidogenesis'
p171
aS'Oxytocin signaling pathway'
p172
aS'Proximal tubule bicarbonate reclamation'
p173
aFnan
aFnan
aFnan
aFnan
aFnan
aFnan
aFnan
aFnan
aFnan
aS'yes'
p174
aFnan
aFnan
aFnan
aFnan
aFnan
aFnan
aFnan
aFnan
aFnan
aFnan
aFnan
aFnan
aFnan
aFnan
aFnan
aFnan
aFnan
aFnan
aFnan
aFnan
ag174
aFnan
aFnan
aFnan
aFnan
aFnan
aFnan
aFnan
aFnan
aFnan
aFnan
aFnan
aFnan
aFnan
aFnan
aFnan
aFnan
aFnan
aFnan
aFnan
aFnan
aFnan
aFnan
aFnan
aFnan
aFnan
aFnan
aFnan
aFnan
aFnan
aFnan
aFnan
ag174
aFnan
aFnan
aFnan
aFnan
ag174
ag174
ag174
ag174
ag174
ag174
ag174
ag174
ag174
ag174
ag174
ag174
ag174
ag174
ag174
ag174
ag174
ag174
ag174
ag174
ag174
ag174
ag174
ag174
ag174
ag174
aFnan
ag174
ag174
ag174
ag174
ag174
ag174
ag174
ag174
ag174
ag174
ag174
ag174
ag174
ag174
ag174
ag174
ag174
ag174
ag174
ag174
ag174
ag174
ag174
ag174
ag174
ag174
ag174
ag174
ag174
ag174
ag174
ag174
ag174
aFnan
ag174
ag174
ag174
ag174
ag174
ag174
aFnan
aFnan
aFnan
aFnan
aFnan
aFnan
aFnan
aFnan
aFnan
ag174
aFnan
aFnan
aFnan
aFnan
aFnan
aFnan
aFnan
aFnan
aFnan
aFnan
aFnan
aFnan
aFnan
aFnan
aFnan
aFnan
aFnan
aFnan
aFnan
aFnan
aFnan
aFnan
aFnan
aFnan
aFnan
aFnan
aFnan
aFnan
aFnan
aFnan
aFnan
aFnan
aFnan
aFnan
aFnan
aFnan
aFnan
aFnan
aFnan
aFnan
aFnan
aFnan
aFnan
aFnan
aFnan
aFnan
aFnan
aFnan
aFnan
aFnan
aFnan
aFnan
aFnan
aFnan
aFnan
aFnan
aFnan
aFnan
aFnan
aFnan
aFnan
aFnan
aFnan
aFnan
aFnan
aFnan
ag174
aFnan
aFnan
ag174
aFnan
aFnan
aFnan
aFnan
aFnan
aFnan
aFnan
aFnan
aFnan
ag174
ag174
aFnan
ag174
ag174
aFnan
aFnan
aFnan
ag174
aFnan
aFnan
aFnan
aFnan
aFnan
aFnan
aFnan
aFnan
aFnan
ag174
aFnan
ag174
aFnan
aFnan
aFnan
aFnan
aFnan
aFnan
aFnan
aFnan
aFnan
aFnan
ag174
ag174
aFnan
aFnan
aFnan
aFnan
aFnan
aFnan
aFnan
aFnan
aFnan
aFnan
aFnan
aFnan
aFnan
aFnan
aFnan
aFnan
aFnan
aFnan
aFnan
aFnan
aFnan
aFnan
aFnan
aFnan
aFnan
aFnan
aFnan
aFnan
aFnan
aFnan
aFnan
aFnan
aFnan
aFnan
aFnan
aFnan
aFnan
ag174
aFnan
aFnan
aFnan
aFnan
aFnan
aFnan
aFnan
aFnan
aFnan
aFnan
aFnan
aFnan
aFnan
aFnan
aFnan
aFnan
aFnan
aFnan
aFnan
aFnan
aFnan
aFnan
aFnan
aFnan
aFnan
aFnan
aFnan
aFnan
aFnan
aFnan
aFnan
aFnan
aFnan
aFnan
aFnan
aFnan
aFnan
aFnan
aFnan
aFnan
aFnan
aFnan
aFnan
aFnan
aFnan
aFnan
aFnan
aFnan
aFnan
aFnan
ag174
aFnan
aFnan
aFnan
aFnan
aFnan
aFnan
aFnan
aFnan
aFnan
aFnan
aFnan
aFnan
aFnan
aFnan
aFnan
aFnan
aFnan
aFnan
aFnan
aFnan
ag174
ag174
aFnan
aFnan
aFnan
aFnan
aFnan
aFnan
aFnan
aFnan
aFnan
aFnan
aFnan
aFnan
ag174
aFnan
ag174
aFnan
aFnan
aFnan
aFnan
aFnan
aFnan
aFnan
aFnan
aFnan
aFnan
aFnan
aFnan
aFnan
ag174
aFnan
ag174
aFnan
aFnan
aFnan
aFnan
atba(lp175
g14
(g15
(dp176
g17
g18
(g19
(I0
tS'b'
tRp177
(I1
(L7L
tg22
I00
(lp178
g24
ag25
ag26
ag27
ag28
ag29
ag30
atbsg31
NstRp179
a(dp180
S'0.14.1'
p181
(dp182
S'axes'
p183
g13
sS'blocks'
p184
(lp185
(dp186
S'mgr_locs'
p187
c__builtin__
slice
p188
(I0
I7
L1L
tRp189
sS'values'
p190
g105
sasstbsb.