ccopy_reg
_reconstructor
p1
(cpandas.core.frame
DataFrame
p2
c__builtin__
object
p3
NtRp4
(dp5
S'_metadata'
p6
(lp7
sS'_typ'
p8
S'dataframe'
p9
sS'_data'
p10
g1
(cpandas.core.internals
BlockManager
p11
g3
NtRp12
((lp13
cpandas.core.index
_new_Index
p14
(cpandas.core.index
Index
p15
(dp16
S'data'
p17
cnumpy.core.multiarray
_reconstruct
p18
(cnumpy
ndarray
p19
(I0
tS'b'
tRp20
(I1
(L7L
tcnumpy
dtype
p21
(S'O8'
I0
I1
tRp22
(I3
S'|'
NNNI-1
I-1
I63
tbI00
(lp23
S'pathwayName'
p24
aS'Km0'
p25
aS'Km1'
p26
aS'Km2'
p27
aS'Km3'
p28
aS'Km4'
p29
aS'Km5'
p30
atbsS'name'
p31
NstRp32
ag14
(g15
(dp33
g17
g18
(g19
(I0
tS'b'
tRp34
(I1
(L60L
tg22
I00
(lp35
S'ko00020'
p36
aS'ko00051'
p37
aS'ko00052'
p38
aS'ko00053'
p39
aS'ko00061'
p40
aS'ko00140'
p41
aS'ko00190'
p42
aS'ko00220'
p43
aS'ko00230'
p44
aS'ko00240'
p45
aS'ko00250'
p46
aS'ko00260'
p47
aS'ko00270'
p48
aS'ko00280'
p49
aS'ko00290'
p50
aS'ko00300'
p51
aS'ko00310'
p52
aS'ko00330'
p53
aS'ko00340'
p54
aS'ko00350'
p55
aS'ko00360'
p56
aS'ko00363'
p57
aS'ko00380'
p58
aS'ko00400'
p59
aS'ko00480'
p60
aS'ko00500'
p61
aS'ko00520'
p62
aS'ko00550'
p63
aS'ko00561'
p64
aS'ko00590'
p65
aS'ko00592'
p66
aS'ko00620'
p67
aS'ko00630'
p68
aS'ko00640'
p69
aS'ko00650'
p70
aS'ko00660'
p71
aS'ko00720'
p72
aS'ko00740'
p73
aS'ko00770'
p74
aS'ko00780'
p75
aS'ko00830'
p76
aS'ko00904'
p77
aS'ko00906'
p78
aS'ko00920'
p79
aS'ko00930'
p80
aS'ko00940'
p81
aS'ko00944'
p82
aS'ko00950'
p83
aS'ko00960'
p84
aS'ko00970'
p85
aS'ko00980'
p86
aS'ko00981'
p87
aS'ko02020'
p88
aS'ko04611'
p89
aS'ko04723'
p90
aS'ko04726'
p91
aS'ko04750'
p92
aS'ko04913'
p93
aS'ko04921'
p94
aS'ko04925'
p95
atbsg31
NstRp96
a(lp97
g18
(g19
(I0
tS'b'
tRp98
(I1
(L7L
L60L
tg22
I00
(lp99
S'Citrate cycle (TCA cycle)'
p100
aS'Fructose and mannose metabolism'
p101
aS'Galactose metabolism'
p102
aS'Ascorbate and aldarate metabolism'
p103
aS'Fatty acid biosynthesis'
p104
aS'Steroid hormone biosynthesis'
p105
aS'Oxidative phosphorylation'
p106
aS'Arginine biosynthesis'
p107
aS'Purine metabolism'
p108
aS'Pyrimidine metabolism'
p109
aS'Alanine, aspartate and glutamate metabolism'
p110
aS'Glycine, serine and threonine metabolism'
p111
aS'Cysteine and methionine metabolism'
p112
aS'Valine, leucine and isoleucine degradation'
p113
aS'Valine, leucine and isoleucine biosynthesis'
p114
aS'Lysine biosynthesis'
p115
aS'Lysine degradation'
p116
aS'Arginine and proline metabolism'
p117
aS'Histidine metabolism'
p118
aS'Tyrosine metabolism'
p119
aS'Phenylalanine metabolism'
p120
aS'Bisphenol degradation'
p121
aS'Tryptophan metabolism'
p122
aS'Phenylalanine, tyrosine and tryptophan biosynthesis'
p123
aS'Glutathione metabolism'
p124
aS'Starch and sucrose metabolism'
p125
aS'Amino sugar and nucleotide sugar metabolism'
p126
aS'Peptidoglycan biosynthesis'
p127
aS'Glycerolipid metabolism'
p128
aS'Arachidonic acid metabolism'
p129
aS'alpha-Linolenic acid metabolism'
p130
aS'Pyruvate metabolism'
p131
aS'Glyoxylate and dicarboxylate metabolism'
p132
aS'Propanoate metabolism'
p133
aS'Butanoate metabolism'
p134
aS'C5-Branched dibasic acid metabolism'
p135
aS'Carbon fixation pathways in prokaryotes'
p136
aS'Riboflavin metabolism'
p137
aS'Pantothenate and CoA biosynthesis'
p138
aS'Biotin metabolism'
p139
aS'Retinol metabolism'
p140
aS'Diterpenoid biosynthesis'
p141
aS'Carotenoid biosynthesis'
p142
aS'Sulfur metabolism'
p143
aS'Caprolactam degradation'
p144
aS'Phenylpropanoid biosynthesis'
p145
aS'Flavone and flavonol biosynthesis'
p146
aS'Isoquinoline alkaloid biosynthesis'
p147
aS'Tropane, piperidine and pyridine alkaloid biosynthesis'
p148
aS'Aminoacyl-tRNA biosynthesis'
p149
aS'Metabolism of xenobiotics by cytochrome P450'
p150
aS'Insect hormone biosynthesis'
p151
aS'Two-component system'
p152
aS'Platelet activation'
p153
aS'Retrograde endocannabinoid signaling'
p154
aS'Serotonergic synapse'
p155
aS'Inflammatory mediator regulation of TRP channels'
p156
aS'Ovarian steroidogenesis'
p157
aS'Oxytocin signaling pathway'
p158
aS'Aldosterone synthesis and secretion'
p159
aFnan
aS'yes'
p160
aFnan
ag160
aFnan
ag160
aFnan
ag160
ag160
aFnan
ag160
ag160
ag160
ag160
ag160
ag160
aFnan
ag160
ag160
aFnan
ag160
aFnan
ag160
ag160
ag160
ag160
aFnan
aFnan
aFnan
ag160
aFnan
aFnan
ag160
aFnan
ag160
ag160
aFnan
ag160
ag160
aFnan
aFnan
aFnan
aFnan
aFnan
aFnan
ag160
aFnan
aFnan
ag160
ag160
aFnan
aFnan
aFnan
aFnan
aFnan
aFnan
aFnan
ag160
aFnan
aFnan
aFnan
aFnan
aFnan
aFnan
aFnan
aFnan
aFnan
aFnan
aFnan
aFnan
aFnan
aFnan
aFnan
aFnan
aFnan
aFnan
aFnan
aFnan
aFnan
aFnan
aFnan
aFnan
aFnan
aFnan
aFnan
aFnan
aFnan
aFnan
aFnan
aFnan
aFnan
aFnan
aFnan
aFnan
aFnan
aFnan
aFnan
aFnan
aFnan
aFnan
aFnan
aFnan
aFnan
aFnan
aFnan
aFnan
aFnan
aFnan
aFnan
aFnan
aFnan
aFnan
aFnan
aFnan
aFnan
aFnan
aFnan
aFnan
aFnan
aFnan
aFnan
aFnan
aFnan
aFnan
aFnan
aFnan
aFnan
aFnan
aFnan
aFnan
aFnan
aFnan
aFnan
ag160
ag160
aFnan
aFnan
aFnan
aFnan
aFnan
aFnan
aFnan
aFnan
aFnan
aFnan
aFnan
aFnan
aFnan
aFnan
ag160
ag160
aFnan
aFnan
aFnan
aFnan
aFnan
aFnan
aFnan
aFnan
aFnan
aFnan
aFnan
aFnan
aFnan
aFnan
aFnan
ag160
aFnan
aFnan
aFnan
aFnan
aFnan
aFnan
ag160
aFnan
ag160
aFnan
aFnan
aFnan
aFnan
aFnan
aFnan
aFnan
aFnan
aFnan
ag160
aFnan
aFnan
ag160
aFnan
aFnan
aFnan
aFnan
aFnan
aFnan
aFnan
aFnan
aFnan
aFnan
aFnan
aFnan
aFnan
ag160
aFnan
aFnan
aFnan
ag160
ag160
aFnan
ag160
aFnan
aFnan
aFnan
aFnan
aFnan
aFnan
aFnan
aFnan
aFnan
aFnan
ag160
ag160
ag160
aFnan
aFnan
aFnan
aFnan
aFnan
aFnan
aFnan
aFnan
ag160
aFnan
aFnan
aFnan
ag160
ag160
ag160
aFnan
ag160
ag160
ag160
ag160
aFnan
ag160
ag160
ag160
aFnan
ag160
ag160
ag160
aFnan
aFnan
ag160
ag160
ag160
ag160
aFnan
ag160
ag160
ag160
ag160
aFnan
ag160
aFnan
aFnan
aFnan
aFnan
aFnan
ag160
aFnan
ag160
ag160
ag160
ag160
aFnan
ag160
ag160
ag160
ag160
ag160
aFnan
aFnan
ag160
ag160
ag160
aFnan
ag160
ag160
ag160
ag160
ag160
ag160
aFnan
ag160
ag160
aFnan
ag160
ag160
aFnan
aFnan
aFnan
ag160
aFnan
aFnan
aFnan
aFnan
aFnan
aFnan
aFnan
aFnan
aFnan
aFnan
aFnan
aFnan
aFnan
aFnan
aFnan
aFnan
aFnan
aFnan
aFnan
aFnan
aFnan
aFnan
aFnan
aFnan
aFnan
ag160
aFnan
aFnan
aFnan
aFnan
aFnan
aFnan
aFnan
aFnan
aFnan
aFnan
aFnan
aFnan
aFnan
ag160
aFnan
aFnan
aFnan
aFnan
aFnan
aFnan
aFnan
aFnan
aFnan
aFnan
aFnan
aFnan
aFnan
aFnan
aFnan
aFnan
aFnan
atba(lp161
g14
(g15
(dp162
g17
g18
(g19
(I0
tS'b'
tRp163
(I1
(L7L
tg22
I00
(lp164
g24
ag25
ag26
ag27
ag28
ag29
ag30
atbsg31
NstRp165
a(dp166
S'0.14.1'
p167
(dp168
S'axes'
p169
g13
sS'blocks'
p170
(lp171
(dp172
S'mgr_locs'
p173
c__builtin__
slice
p174
(I0
I7
L1L
tRp175
sS'values'
p176
g98
sasstbsb.